(dp0
S'cookies'
p1
(dp2
S'wxloadtime'
p3
S'1501593045_expired'
p4
sS'webwx_data_ticket'
p5
S'gScRNIYsGDoj8+GqKsVHtl2U'
p6
sS'wxuin'
p7
S'612373864'
p8
sS'login_frequency'
p9
S'2'
p10
sS'MM_WX_NOTIFY_STATE'
p11
S'1'
p12
sS'MM_WX_SOUND_STATE'
p13
g12
sS'webwx_auth_ticket'
p14
S'CIsBEKK46YcMGoAB5e/eiOD2wxxGBcVVl2XKqLnOa+S4OqR3IN07eLzTETr9R8F17BvxPksGo+P5GSolWnXeQ0a/IKDHdtSQAtqeLbJh/dP2SPycZrpH7O0vhSn4qjpc6lVUwSr19R3Fl/0WPOV+a9epY9IEi//pfW95BKYEXzyBtY3//+WRAf3yRVQ='
p15
sS'last_wxuin'
p16
S'612373864'
p17
sS'webwxuvid'
p18
S'a1f0d041ce34770c02bf8eea356e07e28f82b54714e63d0df9da22b1c7d52924ad529dd272827e1a410e05222799e48d'
p19
sS'wxpluginkey'
p20
S'1501721388'
p21
sS'wxsid'
p22
S'/Ml3l6vjnf+/Q7vG'
p23
sS'mm_lang'
p24
S'zh_CN'
p25
ssS'version'
p26
S'1.3.9'
p27
sS'storage'
p28
(dp29
S'userName'
p30
V@b53d0de1c69ef5a148e739f3a561212693b6c511956d3a20fb230ecc61777641
p31
sS'lastInputUserName'
p32
NsS'memberList'
p33
ccopy_reg
_reconstructor
p34
(citchat.storage.templates
ContactList
p35
c__builtin__
list
p36
(lp37
g34
(citchat.storage.templates
User
p38
c__builtin__
dict
p39
(dp40
S'UserName'
p41
g31
sS'City'
p42
S''
p43
sS'DisplayName'
p44
g43
sS'UniFriend'
p45
I0
sS'OwnerUin'
p46
I0
sS'MemberList'
p47
g34
(g35
g36
(lp48
tp49
Rp50
I1
bsS'PYQuanPin'
p51
V
p52
sS'RemarkPYInitial'
p53
g52
sS'Uin'
p54
I612373864
sS'AppAccountFlag'
p55
I0
sS'VerifyFlag'
p56
I0
sS'Province'
p57
g43
sS'KeyWord'
p58
g43
sS'RemarkName'
p59
g52
sS'PYInitial'
p60
g52
sS'ChatRoomId'
p61
I0
sS'HideInputBarFlag'
p62
I0
sVHeadImgFlag
p63
I1
sS'EncryChatRoomId'
p64
g43
sS'AttrStatus'
p65
I0
sS'SnsFlag'
p66
I16
sS'MemberCount'
p67
I0
sVWebWxPluginSwitch
p68
I0
sS'Alias'
p69
g43
sS'Signature'
p70
g52
sS'ContactFlag'
p71
I0
sS'NickName'
p72
V\u6d4b\u8bd5
p73
sS'RemarkPYQuanPin'
p74
g52
sS'HeadImgUrl'
p75
V/cgi-bin/mmwebwx-bin/webwxgeticon?seq=2071657261&username=@b53d0de1c69ef5a148e739f3a561212693b6c511956d3a20fb230ecc61777641&skey=@crypt_3c18dd5c_549a4ee34e63b940a7a89ae1a16e0827
p76
sS'Sex'
p77
I0
sS'StarFriend'
p78
I0
sS'Statues'
p79
I0
stp80
Rp81
I1
bag34
(g38
g39
(dp82
VUserName
p83
V@be9beccc7269aa786c3e55e414c68ed6a499b248a10fd6986bd8e85f942554b5
p84
sVCity
p85
V\u4fdd\u5b9a
p86
sVSnsFlag
p87
I17
sVDisplayName
p88
g52
sVUniFriend
p89
I0
sVMemberCount
p90
I0
sVOwnerUin
p91
I0
sVMemberList
p92
g50
sVAlias
p93
g52
sVPYQuanPin
p94
Vwei
p95
sVSignature
p96
V\u6211\u5b58\u5728\u5728\u4f60\u7684\u5b58\u5728
p97
sVRemarkPYInitial
p98
g52
sVContactFlag
p99
I3
sVUin
p100
I0
sVNickName
p101
V\u9b4f
p102
sVAppAccountFlag
p103
I0
sVVerifyFlag
p104
I0
sVRemarkPYQuanPin
p105
g52
sVHeadImgUrl
p106
V/cgi-bin/mmwebwx-bin/webwxgeticon?seq=669000045&username=@be9beccc7269aa786c3e55e414c68ed6a499b248a10fd6986bd8e85f942554b5&skey=@crypt_3c18dd5c_549a4ee34e63b940a7a89ae1a16e0827
p107
sVKeyWord
p108
g52
sVProvince
p109
V\u6cb3\u5317
p110
sVPYInitial
p111
VW
p112
sVRemarkName
p113
g52
sVStarFriend
p114
I0
sVSex
p115
I1
sVIsOwner
p116
I0
sVHideInputBarFlag
p117
I0
sVChatRoomId
p118
I0
sVEncryChatRoomId
p119
g52
sVAttrStatus
p120
I110693
sVStatues
p121
I0
stp122
Rp123
I1
batp124
Rp125
I1
bsS'chatroomList'
p126
g34
(g35
g36
(lp127
g34
(citchat.storage.templates
Chatroom
p128
g39
(dp129
VUserName
p130
V@@07a19b7b7206693aeda3d6a6848dccaa7667ff338db69748a675682c7718dd10
p131
sVCity
p132
g52
sVSnsFlag
p133
I0
sVMemberCount
p134
I10
sS'Self'
p135
g34
(citchat.storage.templates
ChatroomMember
p136
g39
(dp137
VUserName
p138
V@b53d0de1c69ef5a148e739f3a561212693b6c511956d3a20fb230ecc61777641
p139
sVRemarkPYQuanPin
p140
g52
sVDisplayName
p141
g52
sVKeyWord
p142
g52
sVPYInitial
p143
g52
sVUin
p144
I0
sS'MemberList'
p145
g50
sVMemberStatus
p146
I0
sVPYQuanPin
p147
g52
sVRemarkPYInitial
p148
g52
sVNickName
p149
V\u6d4b\u8bd5
p150
sVAttrStatus
p151
I33
stp152
Rp153
I1
bsS'OwnerUin'
p154
I0
sVMemberList
p155
g34
(g35
g36
(lp156
g34
(g136
g39
(dp157
VUserName
p158
V@01b7a82d4d925a9f8b4b941ad5f7caa1c17d8ae2e31f11e547aea4242c3fe3cb
p159
sVRemarkPYQuanPin
p160
g52
sVDisplayName
p161
g52
sVKeyWord
p162
g52
sVPYInitial
p163
g52
sVUin
p164
I0
sg145
g50
sVMemberStatus
p165
I0
sVPYQuanPin
p166
g52
sVRemarkPYInitial
p167
g52
sVNickName
p168
V\u8d85
p169
sVAttrStatus
p170
I234173
stp171
Rp172
I1
bag34
(g136
g39
(dp173
VUserName
p174
V@be9beccc7269aa786c3e55e414c68ed6a499b248a10fd6986bd8e85f942554b5
p175
sVRemarkPYQuanPin
p176
g52
sVDisplayName
p177
V\u8f93\u5165\u4e0d\u80fd\u4e3a\u7a7a
p178
sVKeyWord
p179
g52
sVPYInitial
p180
g52
sVUin
p181
I0
sg145
g50
sVMemberStatus
p182
I0
sVPYQuanPin
p183
g52
sVRemarkPYInitial
p184
g52
sVNickName
p185
V\u9b4f
p186
sVAttrStatus
p187
I110693
stp188
Rp189
I1
bag34
(g136
g39
(dp190
VUserName
p191
V@841d57d43aa442c5a92da91cea8b36cdf20b70f6bec78a5e8f5d49ffc2b1af1d
p192
sVRemarkPYQuanPin
p193
g52
sVDisplayName
p194
g52
sVKeyWord
p195
g52
sVPYInitial
p196
g52
sVUin
p197
I0
sg145
g50
sVMemberStatus
p198
I0
sVPYQuanPin
p199
g52
sVRemarkPYInitial
p200
g52
sVNickName
p201
V\u82a5\u5b50\u5fc3
p202
sVAttrStatus
p203
I135205
stp204
Rp205
I1
bag34
(g136
g39
(dp206
VUserName
p207
V@7de32cc2724cff500ab7aef3cdc700c6f51d183acb3e28ca765cc9fdaeaf011a
p208
sVRemarkPYQuanPin
p209
g52
sVDisplayName
p210
g52
sVKeyWord
p211
g52
sVPYInitial
p212
g52
sVUin
p213
I0
sg145
g50
sVMemberStatus
p214
I0
sVPYQuanPin
p215
g52
sVRemarkPYInitial
p216
g52
sVNickName
p217
Vnull
p218
sVAttrStatus
p219
I4133
stp220
Rp221
I1
bag34
(g136
g39
(dp222
VUserName
p223
V@c10a0b4b959772cef77150f8b9f0df2aef40ba6cd413c74cbcde2384916a1a7d
p224
sVRemarkPYQuanPin
p225
g52
sVDisplayName
p226
g52
sVKeyWord
p227
g52
sVPYInitial
p228
g52
sVUin
p229
I0
sg145
g50
sVMemberStatus
p230
I0
sVPYQuanPin
p231
g52
sVRemarkPYInitial
p232
g52
sVNickName
p233
V\u5434\u6d69
p234
sVAttrStatus
p235
I14437
stp236
Rp237
I1
bag34
(g136
g39
(dp238
VUserName
p239
V@be74fe320153af50cc7d0104780bae48635442a6d2167c9c3fa31821f6bc2643
p240
sVRemarkPYQuanPin
p241
g52
sVDisplayName
p242
g52
sVKeyWord
p243
g52
sVPYInitial
p244
g52
sVUin
p245
I0
sg145
g50
sVMemberStatus
p246
I0
sVPYQuanPin
p247
g52
sVRemarkPYInitial
p248
g52
sVNickName
p249
V\u91ca\u7136
p250
sVAttrStatus
p251
I135805
stp252
Rp253
I1
bag34
(g136
g39
(dp254
VUserName
p255
V@2df1856896bba7c714f8d9454fadd4f87430dba095e8572ded54df14afb5c3d4
p256
sVRemarkPYQuanPin
p257
g52
sVDisplayName
p258
g52
sVKeyWord
p259
g52
sVPYInitial
p260
g52
sVUin
p261
I0
sg145
g50
sVMemberStatus
p262
I0
sVPYQuanPin
p263
g52
sVRemarkPYInitial
p264
g52
sVNickName
p265
V\u5434\u90aa
p266
sVAttrStatus
p267
I98749
stp268
Rp269
I1
bag34
(g136
g39
(dp270
VUserName
p271
V@eea9285e1290d9bfe71b40bf41eb01bbe1ed7645e28870b6d59798e9a2c54358
p272
sVRemarkPYQuanPin
p273
g52
sVDisplayName
p274
g52
sVKeyWord
p275
g52
sVPYInitial
p276
g52
sVUin
p277
I0
sg145
g50
sVMemberStatus
p278
I0
sVPYQuanPin
p279
g52
sVRemarkPYInitial
p280
g52
sVNickName
p281
V\u4eba\u4e11\u5c31\u8981\u591a\u8bfb\u4e66\U0001f612
p282
sVAttrStatus
p283
I102589
stp284
Rp285
I1
bag34
(g136
g39
(dp286
VUserName
p287
V@391d84ff2a1f8cf2c33b2e70c16a36a4999becd77c1ec594d05c8d2d6cd28a6e
p288
sVRemarkPYQuanPin
p289
g52
sVDisplayName
p290
g52
sVKeyWord
p291
g52
sVPYInitial
p292
g52
sVUin
p293
I0
sg145
g50
sVMemberStatus
p294
I0
sVPYQuanPin
p295
g52
sVRemarkPYInitial
p296
g52
sVNickName
p297
V\u55b5\u4e86\u4e2a\u54aa
p298
sVAttrStatus
p299
I110695
stp300
Rp301
I1
bag34
(g136
g39
(dp302
g138
g139
sg140
g52
sg141
g52
sg142
g52
sg143
g52
sg144
I0
sg145
g50
sg146
I0
sg147
g52
sg148
g52
sg149
g150
sg151
I33
stp303
Rp304
I1
batp305
Rp306
I1
bsVAlias
p307
g52
sS'IsAdmin'
p308
NsVSignature
p309
g52
sVContactFlag
p310
I2
sVNickName
p311
V\u590f\u81f3\u672a\u81f3
p312
sVChatRoomOwner
p313
V@01b7a82d4d925a9f8b4b941ad5f7caa1c17d8ae2e31f11e547aea4242c3fe3cb
p314
sVVerifyFlag
p315
I0
sVProvince
p316
g52
sVStatues
p317
I1
sVKeyWord
p318
g52
sVRemarkName
p319
g52
sVHeadImgUrl
p320
V/cgi-bin/mmwebwx-bin/webwxgetheadimg?seq=0&username=@@07a19b7b7206693aeda3d6a6848dccaa7667ff338db69748a675682c7718dd10&skey=@crypt_3c18dd5c_549a4ee34e63b940a7a89ae1a16e0827
p321
sVSex
p322
I0
sVContactType
p323
I0
sVHideInputBarFlag
p324
I0
sVAttrStatus
p325
I0
sVHeadImgUpdateFlag
p326
I1
stp327
Rp328
I1
bag34
(g128
g39
(dp329
VUserName
p330
V@@b2ef1ea12b847f7d0c0f6e59ad684400b9a962492e866c8f3245a884845466f1
p331
sVCity
p332
g52
sVSnsFlag
p333
I0
sVMemberCount
p334
I4
sS'Self'
p335
g34
(g136
g39
(dp336
VUserName
p337
V@b53d0de1c69ef5a148e739f3a561212693b6c511956d3a20fb230ecc61777641
p338
sVRemarkPYQuanPin
p339
g52
sVDisplayName
p340
g52
sVKeyWord
p341
g52
sVPYInitial
p342
g52
sVUin
p343
I0
sS'MemberList'
p344
g50
sVRemarkPYInitial
p345
g52
sVPYQuanPin
p346
g52
sVMemberStatus
p347
I0
sVNickName
p348
V\u6d4b\u8bd5
p349
sVAttrStatus
p350
I33
stp351
Rp352
I1
bsS'OwnerUin'
p353
I0
sVMemberList
p354
g34
(g35
g36
(lp355
g34
(g136
g39
(dp356
VUserName
p357
V@e790a3da0dd3f3ef1c51cd1d60e6179843e6931b1e09cb0407969c3296db6a4f
p358
sVRemarkPYQuanPin
p359
g52
sVDisplayName
p360
g52
sVKeyWord
p361
g52
sVPYInitial
p362
g52
sVUin
p363
I0
sg344
g50
sVMemberStatus
p364
I0
sVPYQuanPin
p365
g52
sVRemarkPYInitial
p366
g52
sVNickName
p367
V\u6d77\u5e95\u6c89\u77f3.
p368
sVAttrStatus
p369
I36901
stp370
Rp371
I1
bag34
(g136
g39
(dp372
VUserName
p373
V@be9beccc7269aa786c3e55e414c68ed6a499b248a10fd6986bd8e85f942554b5
p374
sVRemarkPYQuanPin
p375
g52
sVDisplayName
p376
V\u9b4f\u83f2
p377
sVKeyWord
p378
g52
sVPYInitial
p379
g52
sVUin
p380
I0
sg344
g50
sVMemberStatus
p381
I0
sVPYQuanPin
p382
g52
sVRemarkPYInitial
p383
g52
sVNickName
p384
V\u9b4f
p385
sVAttrStatus
p386
I110693
stp387
Rp388
I1
bag34
(g136
g39
(dp389
VUserName
p390
V@da9a308b0077a3891a31f1838b1d688a71355b83b5feb6ca6e23f2e39e5694b7
p391
sVRemarkPYQuanPin
p392
g52
sVDisplayName
p393
g52
sVKeyWord
p394
g52
sVPYInitial
p395
g52
sVUin
p396
I0
sg344
g50
sVMemberStatus
p397
I0
sVPYQuanPin
p398
g52
sVRemarkPYInitial
p399
g52
sVNickName
p400
V\u5feb\u4e50\u6bcf\u4e00\u5929
p401
sVAttrStatus
p402
I4133
stp403
Rp404
I1
bag34
(g136
g39
(dp405
g337
g338
sg339
g52
sg340
g52
sg341
g52
sg342
g52
sg343
I0
sg344
g50
sg347
I0
sg346
g52
sg345
g52
sg348
g349
sg350
I33
stp406
Rp407
I1
batp408
Rp409
I1
bsVAlias
p410
g52
sS'IsAdmin'
p411
NsVSignature
p412
g52
sVContactFlag
p413
I2
sVNickName
p414
V\u54c8\u54c8\u54c8\u54c8
p415
sVChatRoomOwner
p416
V@be9beccc7269aa786c3e55e414c68ed6a499b248a10fd6986bd8e85f942554b5
p417
sVVerifyFlag
p418
I0
sVProvince
p419
g52
sVStatues
p420
I1
sVKeyWord
p421
g52
sVRemarkName
p422
g52
sVHeadImgUrl
p423
V/cgi-bin/mmwebwx-bin/webwxgetheadimg?seq=0&username=@@b2ef1ea12b847f7d0c0f6e59ad684400b9a962492e866c8f3245a884845466f1&skey=@crypt_3c18dd5c_549a4ee34e63b940a7a89ae1a16e0827
p424
sVSex
p425
I0
sVContactType
p426
I0
sVHideInputBarFlag
p427
I0
sVAttrStatus
p428
I0
sVHeadImgUpdateFlag
p429
I1
stp430
Rp431
I1
batp432
Rp433
I1
bsS'nickName'
p434
g73
sS'mpList'
p435
g34
(g35
g36
(lp436
g34
(citchat.storage.templates
MassivePlatform
p437
g39
(dp438
VUserName
p439
V@94434e1aa3749c1859b3b02997b4f8cf
p440
sVCity
p441
V\u6c88\u9633
p442
sVSnsFlag
p443
I0
sVDisplayName
p444
g52
sVUniFriend
p445
I0
sVMemberCount
p446
I0
sVOwnerUin
p447
I0
sVMemberList
p448
g50
sVAlias
p449
g52
sVPYQuanPin
p450
g52
sVSignature
p451
V\u5fa1\u9f99\u5728\u5929\u73a9\u5bb6\u6c9f\u901a
p452
sVRemarkPYInitial
p453
g52
sVContactFlag
p454
I3
sVUin
p455
I0
sVNickName
p456
g52
sVAppAccountFlag
p457
I0
sVVerifyFlag
p458
I8
sVRemarkPYQuanPin
p459
g52
sVHeadImgUrl
p460
V/cgi-bin/mmwebwx-bin/webwxgeticon?seq=620050042&username=@94434e1aa3749c1859b3b02997b4f8cf&skey=@crypt_3c18dd5c_549a4ee34e63b940a7a89ae1a16e0827
p461
sVKeyWord
p462
Vgh_
p463
sVProvince
p464
V\u8fbd\u5b81
p465
sVPYInitial
p466
g52
sVRemarkName
p467
g52
sVStarFriend
p468
I0
sVSex
p469
I0
sVIsOwner
p470
I0
sVHideInputBarFlag
p471
I0
sVChatRoomId
p472
I0
sVEncryChatRoomId
p473
g52
sVAttrStatus
p474
I0
sVStatues
p475
I0
stp476
Rp477
I1
bag34
(g437
g39
(dp478
VUserName
p479
V@47b0a5b93797099cdef1e61297e00351
p480
sVCity
p481
V\u6210\u90fd
p482
sVSnsFlag
p483
I0
sVDisplayName
p484
g52
sVUniFriend
p485
I0
sVMemberCount
p486
I0
sVOwnerUin
p487
I0
sVMemberList
p488
g50
sVAlias
p489
g52
sVPYQuanPin
p490
g52
sVSignature
p491
V\u817e\u8baf\u56fd\u6218\u6e38\u620f\u3001\u73a9\u5bb6\u4ea4\u6d41\u3002
p492
sVRemarkPYInitial
p493
g52
sVContactFlag
p494
I3
sVUin
p495
I0
sVNickName
p496
g52
sVAppAccountFlag
p497
I0
sVVerifyFlag
p498
I8
sVRemarkPYQuanPin
p499
g52
sVHeadImgUrl
p500
V/cgi-bin/mmwebwx-bin/webwxgeticon?seq=620050045&username=@47b0a5b93797099cdef1e61297e00351&skey=@crypt_3c18dd5c_549a4ee34e63b940a7a89ae1a16e0827
p501
sVKeyWord
p502
Vgh_
p503
sVProvince
p504
V\u56db\u5ddd
p505
sVPYInitial
p506
g52
sVRemarkName
p507
g52
sVStarFriend
p508
I0
sVSex
p509
I0
sVIsOwner
p510
I0
sVHideInputBarFlag
p511
I0
sVChatRoomId
p512
I0
sVEncryChatRoomId
p513
g52
sVAttrStatus
p514
I0
sVStatues
p515
I0
stp516
Rp517
I1
bag34
(g437
g39
(dp518
VUserName
p519
V@e6f155590955e93d3023fed2b07f0ac8
p520
sVCity
p521
V\u671d\u9633
p522
sVSnsFlag
p523
I0
sVDisplayName
p524
g52
sVUniFriend
p525
I0
sVMemberCount
p526
I0
sVOwnerUin
p527
I0
sVMemberList
p528
g50
sVAlias
p529
g52
sVPYQuanPin
p530
Vxiaomishouji
p531
sVSignature
p532
V\u5173\u6ce8\u5c0f\u7c73\u624b\u673a\u516c\u4f17\u53f7\uff0c\u4e70\u624b\u673a\u3001\u7533\u8bf7\u552e\u540e\u3001\u5ba2\u670d\u54a8\u8be2\u8fd9\u91cc\u5168\u90fd\u6709\uff01
p533
sVRemarkPYInitial
p534
g52
sVContactFlag
p535
I3
sVUin
p536
I0
sVNickName
p537
V\u5c0f\u7c73\u624b\u673a
p538
sVAppAccountFlag
p539
I0
sVVerifyFlag
p540
I24
sVRemarkPYQuanPin
p541
g52
sVHeadImgUrl
p542
V/cgi-bin/mmwebwx-bin/webwxgeticon?seq=620050030&username=@e6f155590955e93d3023fed2b07f0ac8&skey=@crypt_3c18dd5c_549a4ee34e63b940a7a89ae1a16e0827
p543
sVKeyWord
p544
Vgh_
p545
sVProvince
p546
V\u5317\u4eac
p547
sVPYInitial
p548
VXMSJ
p549
sVRemarkName
p550
g52
sVStarFriend
p551
I0
sVSex
p552
I0
sVIsOwner
p553
I0
sVHideInputBarFlag
p554
I0
sVChatRoomId
p555
I0
sVEncryChatRoomId
p556
g52
sVAttrStatus
p557
I0
sVStatues
p558
I0
stp559
Rp560
I1
bag34
(g437
g39
(dp561
VUserName
p562
V@b7a356eba8481ccf6bfc32be91ce6d58
p563
sVCity
p564
V\u6df1\u5733
p565
sVSnsFlag
p566
I0
sVDisplayName
p567
g52
sVUniFriend
p568
I0
sVMemberCount
p569
I0
sVOwnerUin
p570
I0
sVMemberList
p571
g50
sVAlias
p572
g52
sVPYQuanPin
p573
Vyulongzaitian
p574
sVSignature
p575
V 
p576
sVRemarkPYInitial
p577
g52
sVContactFlag
p578
I3
sVUin
p579
I0
sVNickName
p580
V\u5fa1\u9f99\u5728\u5929
p581
sVAppAccountFlag
p582
I0
sVVerifyFlag
p583
I24
sVRemarkPYQuanPin
p584
g52
sVHeadImgUrl
p585
V/cgi-bin/mmwebwx-bin/webwxgeticon?seq=620050039&username=@b7a356eba8481ccf6bfc32be91ce6d58&skey=@crypt_3c18dd5c_549a4ee34e63b940a7a89ae1a16e0827
p586
sVKeyWord
p587
Vylz
p588
sVProvince
p589
V\u5e7f\u4e1c
p590
sVPYInitial
p591
VYLZT
p592
sVRemarkName
p593
g52
sVStarFriend
p594
I0
sVSex
p595
I0
sVIsOwner
p596
I0
sVHideInputBarFlag
p597
I0
sVChatRoomId
p598
I0
sVEncryChatRoomId
p599
g52
sVAttrStatus
p600
I0
sVStatues
p601
I0
stp602
Rp603
I1
batp604
Rp605
I1
bssS'loginInfo'
p606
(dp607
S'SyncKey'
p608
(dp609
VCount
p610
I9
sVList
p611
(lp612
(dp613
VVal
p614
I669001334
sVKey
p615
I1
sa(dp616
VVal
p617
I669001446
sVKey
p618
I2
sa(dp619
VVal
p620
I669000057
sVKey
p621
I3
sa(dp622
VVal
p623
I669000273
sVKey
p624
I11
sa(dp625
VVal
p626
I669000001
sVKey
p627
I13
sa(dp628
VVal
p629
I1501729787
sVKey
p630
I201
sa(dp631
VVal
p632
I1501643585
sVKey
p633
I203
sa(dp634
VVal
p635
I1501721388
sVKey
p636
I1000
sa(dp637
VVal
p638
I1501721672
sVKey
p639
I1001
sassS'syncUrl'
p640
S'https://webpush.wx.qq.com/cgi-bin/mmwebwx-bin'
p641
sS'skey'
p642
V@crypt_3c18dd5c_549a4ee34e63b940a7a89ae1a16e0827
p643
sS'wxuin'
p644
V612373864
p645
sS'synckey'
p646
S'1_669001334|2_669001446|3_669000057|11_669000273|13_669000001|201_1501729787|203_1501643585|1000_1501721388|1001_1501721672'
p647
sS'url'
p648
Vhttps://wx.qq.com/cgi-bin/mmwebwx-bin
p649
sS'pass_ticket'
p650
VT4chNhF7OE9W%2BTruavoso1kI3oeAtGXQZg%2BXBvw%2FckDKN8Fi9sj4y1zKWD04HtLV
p651
sS'wxsid'
p652
V/Ml3l6vjnf+/Q7vG
p653
sS'InviteStartCount'
p654
I40
sS'deviceid'
p655
S'e068170915010221'
p656
sS'fileUrl'
p657
S'https://file.wx.qq.com/cgi-bin/mmwebwx-bin'
p658
sS'BaseRequest'
p659
(dp660
S'Sid'
p661
g653
sS'Skey'
p662
g643
sS'DeviceID'
p663
g651
sg54
g645
ssS'User'
p664
g34
(g38
g39
(dp665
g41
g31
sg42
g43
sg44
g43
sg45
I0
sg47
g50
sg51
g52
sg53
g52
sg77
I0
sg55
I0
sg56
I0
sg57
g43
sg58
g43
sg59
g52
sg60
g52
sg61
I0
sg62
I0
sg63
I1
sg64
g43
sg65
I0
sg68
I0
sg66
I16
sg67
I0
sg46
I0
sg69
g43
sg70
g52
sg71
I0
sg72
g73
sg74
g52
sg75
g76
sg54
I612373864
sg78
I0
sg79
I0
stp666
Rp667
I1
bss.