(dp0
S'cookies'
p1
(dp2
S'webwx_data_ticket'
p3
S'gSeFsdu+Oc4bE39vajcaJR7m'
p4
sS'wxuin'
p5
S'2751702521'
p6
sS'webwxuvid'
p7
S'a1f0d041ce34770c02bf8eea356e07e28f82b54714e63d0df9da22b1c7d52924ad529dd272827e1a410e05222799e48d'
p8
sS'webwx_auth_ticket'
p9
S'CIsBEMDKkxIagAHFlhVI5Qw0K9Gv6jVOGXldIULUS/+VgZP7WW53iHCohBfgp1GA9i+sjXHQ7CEVfQM1sIilg6dfDp5S5+JACjNVCj9cMDla4U6iRkqeh7kwIgGD6Ga/UF5D+dKnne5jBsTwbV3B13qTG1TDwOLdenTPM+PoYYk3veeAqn24yiAYYg=='
p10
sS'wxloadtime'
p11
S'1501588440_expired'
p12
sS'wxpluginkey'
p13
S'1501582862'
p14
sS'wxsid'
p15
S'zib/METlEA0rqF91'
p16
sS'mm_lang'
p17
S'zh_CN'
p18
ssS'version'
p19
S'1.3.9'
p20
sS'storage'
p21
(dp22
S'userName'
p23
V@675dd9444dcfb57bf2f5d288263e79da3894c5881e5efabc6ee82b72bfdb1cce
p24
sS'lastInputUserName'
p25
NsS'memberList'
p26
ccopy_reg
_reconstructor
p27
(citchat.storage.templates
ContactList
p28
c__builtin__
list
p29
(lp30
g27
(citchat.storage.templates
User
p31
c__builtin__
dict
p32
(dp33
S'UserName'
p34
g24
sS'City'
p35
S''
p36
sS'DisplayName'
p37
g36
sS'UniFriend'
p38
I0
sS'OwnerUin'
p39
I0
sS'MemberList'
p40
g27
(g28
g29
(lp41
tp42
Rp43
I1
bsS'PYQuanPin'
p44
V
p45
sS'RemarkPYInitial'
p46
g45
sS'Uin'
p47
L2751702521L
sS'AppAccountFlag'
p48
I0
sS'VerifyFlag'
p49
I0
sS'Province'
p50
g36
sS'KeyWord'
p51
g36
sS'RemarkName'
p52
g45
sS'PYInitial'
p53
g45
sS'ChatRoomId'
p54
I0
sS'HideInputBarFlag'
p55
I0
sVHeadImgFlag
p56
I1
sS'EncryChatRoomId'
p57
g36
sS'AttrStatus'
p58
I0
sS'SnsFlag'
p59
I17
sS'MemberCount'
p60
I0
sVWebWxPluginSwitch
p61
I0
sS'Alias'
p62
g36
sS'Signature'
p63
V\u6211\u5b58\u5728\u5728\u4f60\u7684\u5b58\u5728
p64
sS'ContactFlag'
p65
I0
sS'NickName'
p66
V\u9b4f
p67
sS'RemarkPYQuanPin'
p68
g45
sS'HeadImgUrl'
p69
V/cgi-bin/mmwebwx-bin/webwxgeticon?seq=1973271710&username=@675dd9444dcfb57bf2f5d288263e79da3894c5881e5efabc6ee82b72bfdb1cce&skey=@crypt_7a97a81e_5cd31d7995feba3757e6dc9bbe7af259
p70
sS'Sex'
p71
I1
sS'StarFriend'
p72
I0
sS'Statues'
p73
I0
stp74
Rp75
I1
bag27
(g31
g32
(dp76
VUserName
p77
V@48509bdf661d0e95ee5c65ba953beedb36aa8037d5b8628da34fafd156fcb897
p78
sVCity
p79
V\u4fdd\u5b9a
p80
sVSnsFlag
p81
I16
sVDisplayName
p82
g45
sVUniFriend
p83
I0
sVMemberCount
p84
I0
sVOwnerUin
p85
I0
sVMemberList
p86
g43
sVAlias
p87
g45
sVPYQuanPin
p88
Vlixiangyue
p89
sVSignature
p90
V\u5c18\u5f52\u8fb0\uff5e\u5c18\u5f52\u5c18\uff5e
p91
sVRemarkPYInitial
p92
g45
sVContactFlag
p93
I3
sVUin
p94
I0
sVNickName
p95
V\u674e\u5411\u4e50
p96
sVAppAccountFlag
p97
I0
sVVerifyFlag
p98
I0
sVRemarkPYQuanPin
p99
g45
sVHeadImgUrl
p100
V/cgi-bin/mmwebwx-bin/webwxgeticon?seq=620370203&username=@48509bdf661d0e95ee5c65ba953beedb36aa8037d5b8628da34fafd156fcb897&skey=@crypt_7a97a81e_5cd31d7995feba3757e6dc9bbe7af259
p101
sVKeyWord
p102
g45
sVProvince
p103
V\u6cb3\u5317
p104
sVPYInitial
p105
VLXY
p106
sVRemarkName
p107
g45
sVIsOwner
p108
I0
sVSex
p109
I1
sVStarFriend
p110
I0
sVHideInputBarFlag
p111
I0
sVChatRoomId
p112
I0
sVEncryChatRoomId
p113
g45
sVAttrStatus
p114
I4129
sVStatues
p115
I0
stp116
Rp117
I1
bag27
(g31
g32
(dp118
VUserName
p119
V@6e4305166e1ae9a5fb00301301e0df3d9f95d72530f65aef62acbfed96f01772
p120
sVCity
p121
V\u4fdd\u5b9a
p122
sVSnsFlag
p123
I17
sVDisplayName
p124
g45
sVUniFriend
p125
I0
sVMemberCount
p126
I0
sVOwnerUin
p127
I0
sVMemberList
p128
g43
sVAlias
p129
g45
sVPYQuanPin
p130
Vyu
p131
sVSignature
p132
V\u6211\u53ef\u4ee5\u7684\u3002\u3002\u3002\u3002
p133
sVRemarkPYInitial
p134
VLSY
p135
sVContactFlag
p136
I3
sVUin
p137
I0
sVNickName
p138
V\u5b87
p139
sVAppAccountFlag
p140
I0
sVVerifyFlag
p141
I0
sVRemarkPYQuanPin
p142
Vlishiyu
p143
sVHeadImgUrl
p144
V/cgi-bin/mmwebwx-bin/webwxgeticon?seq=620440623&username=@6e4305166e1ae9a5fb00301301e0df3d9f95d72530f65aef62acbfed96f01772&skey=@crypt_7a97a81e_5cd31d7995feba3757e6dc9bbe7af259
p145
sVKeyWord
p146
g45
sVProvince
p147
V\u6cb3\u5317
p148
sVPYInitial
p149
VY
p150
sVRemarkName
p151
V\u674e\u8bd7\u5b87
p152
sVIsOwner
p153
I0
sVSex
p154
I2
sVStarFriend
p155
I0
sVHideInputBarFlag
p156
I0
sVChatRoomId
p157
I0
sVEncryChatRoomId
p158
g45
sVAttrStatus
p159
I135357
sVStatues
p160
I0
stp161
Rp162
I1
bag27
(g31
g32
(dp163
VUserName
p164
V@0bd94167ddd34d2c67bd4bedf098e93a5112b3aaddb45da2e126d94370acd7bb
p165
sVCity
p166
V\u79e6\u7687\u5c9b
p167
sVSnsFlag
p168
I17
sVDisplayName
p169
g45
sVUniFriend
p170
I0
sVMemberCount
p171
I0
sVOwnerUin
p172
I0
sVMemberList
p173
g43
sVAlias
p174
g45
sVPYQuanPin
p175
Vwunan
p176
sVSignature
p177
V\u505a\u597d\u773c\u524d\u7684\uff0c\u518d\u60f3\u660e\u5929\u7684
p178
sVRemarkPYInitial
p179
g45
sVContactFlag
p180
I3
sVUin
p181
I0
sVNickName
p182
V\u5434\u6960
p183
sVAppAccountFlag
p184
I0
sVVerifyFlag
p185
I0
sVRemarkPYQuanPin
p186
g45
sVHeadImgUrl
p187
V/cgi-bin/mmwebwx-bin/webwxgeticon?seq=620690584&username=@0bd94167ddd34d2c67bd4bedf098e93a5112b3aaddb45da2e126d94370acd7bb&skey=@crypt_7a97a81e_5cd31d7995feba3757e6dc9bbe7af259
p188
sVKeyWord
p189
g45
sVProvince
p190
V\u6cb3\u5317
p191
sVPYInitial
p192
VWN
p193
sVRemarkName
p194
g45
sVIsOwner
p195
I0
sVSex
p196
I1
sVStarFriend
p197
I0
sVHideInputBarFlag
p198
I0
sVChatRoomId
p199
I0
sVEncryChatRoomId
p200
g45
sVAttrStatus
p201
I37
sVStatues
p202
I0
stp203
Rp204
I1
bag27
(g31
g32
(dp205
VUserName
p206
V@b17e7071fd8a559f8f2ec3d257f3b808f63377838838e890965815a26babbac2
p207
sVCity
p208
V\u79e6\u7687\u5c9b
p209
sVSnsFlag
p210
I1
sVDisplayName
p211
g45
sVUniFriend
p212
I0
sVMemberCount
p213
I0
sVOwnerUin
p214
I0
sVMemberList
p215
g43
sVAlias
p216
g45
sVPYQuanPin
p217
Vlarriers
p218
sVSignature
p219
V    \u6211\u60f3\u770b\u770b\u73ab\u7470\u3002
p220
sVRemarkPYInitial
p221
VLH
p222
sVContactFlag
p223
I3
sVUin
p224
I0
sVNickName
p225
Vlarriers
p226
sVAppAccountFlag
p227
I0
sVVerifyFlag
p228
I0
sVRemarkPYQuanPin
p229
Vlihe
p230
sVHeadImgUrl
p231
V/cgi-bin/mmwebwx-bin/webwxgeticon?seq=630041184&username=@b17e7071fd8a559f8f2ec3d257f3b808f63377838838e890965815a26babbac2&skey=@crypt_7a97a81e_5cd31d7995feba3757e6dc9bbe7af259
p232
sVKeyWord
p233
g45
sVProvince
p234
V\u6cb3\u5317
p235
sVPYInitial
p236
VLARRIERS
p237
sVRemarkName
p238
V\u674e\u8d3a
p239
sVIsOwner
p240
I0
sVSex
p241
I2
sVStarFriend
p242
I0
sVHideInputBarFlag
p243
I0
sVChatRoomId
p244
I0
sVEncryChatRoomId
p245
g45
sVAttrStatus
p246
I233509
sVStatues
p247
I0
stp248
Rp249
I1
bag27
(g31
g32
(dp250
VUserName
p251
V@c381d0e3180521cbd9252367996ed8e283b16d896fd2525dfd4a1648e26cb703
p252
sVCity
p253
V\u5510\u5c71
p254
sVSnsFlag
p255
I17
sVDisplayName
p256
g45
sVUniFriend
p257
I0
sVMemberCount
p258
I0
sVOwnerUin
p259
I0
sVMemberList
p260
g43
sVAlias
p261
g45
sVPYQuanPin
p262
Vwuhao
p263
sVSignature
p264
g45
sVRemarkPYInitial
p265
g45
sVContactFlag
p266
I3
sVUin
p267
I0
sVNickName
p268
V\u5434\u6d69
p269
sVAppAccountFlag
p270
I0
sVVerifyFlag
p271
I0
sVRemarkPYQuanPin
p272
g45
sVHeadImgUrl
p273
V/cgi-bin/mmwebwx-bin/webwxgeticon?seq=634462847&username=@c381d0e3180521cbd9252367996ed8e283b16d896fd2525dfd4a1648e26cb703&skey=@crypt_7a97a81e_5cd31d7995feba3757e6dc9bbe7af259
p274
sVKeyWord
p275
g45
sVProvince
p276
V\u6cb3\u5317
p277
sVPYInitial
p278
VWH
p279
sVRemarkName
p280
g45
sVIsOwner
p281
I0
sVSex
p282
I1
sVStarFriend
p283
I0
sVHideInputBarFlag
p284
I0
sVChatRoomId
p285
I0
sVEncryChatRoomId
p286
g45
sVAttrStatus
p287
I14437
sVStatues
p288
I0
stp289
Rp290
I1
bag27
(g31
g32
(dp291
VUserName
p292
V@911c021c8cb8a93ce49f82c28f7cd99e
p293
sVCity
p294
V\u4fdd\u5b9a
p295
sVSnsFlag
p296
I17
sVDisplayName
p297
g45
sVUniFriend
p298
I0
sVMemberCount
p299
I0
sVOwnerUin
p300
I0
sVMemberList
p301
g43
sVAlias
p302
g45
sVPYQuanPin
p303
Vxiangnixiangfei
p304
sVSignature
p305
g45
sVRemarkPYInitial
p306
VYZQ
p307
sVContactFlag
p308
I3
sVUin
p309
I0
sVNickName
p310
V\u60f3\u4f60\u3002\u60f3\u98de
p311
sVAppAccountFlag
p312
I0
sVVerifyFlag
p313
I0
sVRemarkPYQuanPin
p314
Vyangzhenqi
p315
sVHeadImgUrl
p316
V/cgi-bin/mmwebwx-bin/webwxgeticon?seq=640883661&username=@911c021c8cb8a93ce49f82c28f7cd99e&skey=@crypt_7a97a81e_5cd31d7995feba3757e6dc9bbe7af259
p317
sVKeyWord
p318
VQ73
p319
sVProvince
p320
V\u6cb3\u5317
p321
sVPYInitial
p322
VXNXF
p323
sVRemarkName
p324
V\u6768\u632f\u742a
p325
sVIsOwner
p326
I0
sVSex
p327
I1
sVStarFriend
p328
I0
sVHideInputBarFlag
p329
I0
sVChatRoomId
p330
I0
sVEncryChatRoomId
p331
g45
sVAttrStatus
p332
I35
sVStatues
p333
I0
stp334
Rp335
I1
bag27
(g31
g32
(dp336
VUserName
p337
V@24b39608625a8bfa9189997b82b8117fdd5fa7cfcbc991fb853ed60141759c5a
p338
sVCity
p339
g45
sVSnsFlag
p340
I1
sVDisplayName
p341
g45
sVUniFriend
p342
I0
sVMemberCount
p343
I0
sVOwnerUin
p344
I0
sVMemberList
p345
g43
sVAlias
p346
g45
sVPYQuanPin
p347
Vmengzhen
p348
sVSignature
p349
g45
sVRemarkPYInitial
p350
g45
sVContactFlag
p351
I3
sVUin
p352
I0
sVNickName
p353
V\u5b5f\u796f
p354
sVAppAccountFlag
p355
I0
sVVerifyFlag
p356
I0
sVRemarkPYQuanPin
p357
g45
sVHeadImgUrl
p358
V/cgi-bin/mmwebwx-bin/webwxgeticon?seq=646600266&username=@24b39608625a8bfa9189997b82b8117fdd5fa7cfcbc991fb853ed60141759c5a&skey=@crypt_7a97a81e_5cd31d7995feba3757e6dc9bbe7af259
p359
sVKeyWord
p360
g45
sVProvince
p361
g45
sVPYInitial
p362
VMZ
p363
sVRemarkName
p364
g45
sVIsOwner
p365
I0
sVSex
p366
I0
sVStarFriend
p367
I0
sVHideInputBarFlag
p368
I0
sVChatRoomId
p369
I0
sVEncryChatRoomId
p370
g45
sVAttrStatus
p371
I4133
sVStatues
p372
I0
stp373
Rp374
I1
bag27
(g31
g32
(dp375
VUserName
p376
V@d8e63aeeaebe58272988b17af3e1d097
p377
sVCity
p378
V\u79e6\u7687\u5c9b
p379
sVSnsFlag
p380
I49
sVDisplayName
p381
g45
sVUniFriend
p382
I0
sVMemberCount
p383
I0
sVOwnerUin
p384
I0
sVMemberList
p385
g43
sVAlias
p386
g45
sVPYQuanPin
p387
Vhaoyunduoduo
p388
sVSignature
p389
V\u51e1\u662f\u4eba\u7686\u987b\u7231 \u5929\u540c\u8986\u5730\u540c\u8f7d
p390
sVRemarkPYInitial
p391
g45
sVContactFlag
p392
I3
sVUin
p393
I0
sVNickName
p394
V\u597d\u8fd0\u591a\u591a
p395
sVAppAccountFlag
p396
I0
sVVerifyFlag
p397
I0
sVRemarkPYQuanPin
p398
g45
sVHeadImgUrl
p399
V/cgi-bin/mmwebwx-bin/webwxgeticon?seq=643300207&username=@d8e63aeeaebe58272988b17af3e1d097&skey=@crypt_7a97a81e_5cd31d7995feba3757e6dc9bbe7af259
p400
sVKeyWord
p401
Vaa9
p402
sVProvince
p403
V\u6cb3\u5317
p404
sVPYInitial
p405
VHYDD
p406
sVRemarkName
p407
g45
sVIsOwner
p408
I0
sVSex
p409
I2
sVStarFriend
p410
I0
sVHideInputBarFlag
p411
I0
sVChatRoomId
p412
I0
sVEncryChatRoomId
p413
g45
sVAttrStatus
p414
I99839
sVStatues
p415
I0
stp416
Rp417
I1
bag27
(g31
g32
(dp418
VUserName
p419
V@5c2460818940c17315149df6ecbfc50afd489f53c918fc82aeb6067dc77d18f6
p420
sVCity
p421
V\u4fdd\u5b9a
p422
sVSnsFlag
p423
I1
sVDisplayName
p424
g45
sVUniFriend
p425
I0
sVMemberCount
p426
I0
sVOwnerUin
p427
I0
sVMemberList
p428
g43
sVAlias
p429
g45
sVPYQuanPin
p430
Vyimiao
p431
sVSignature
p432
V\u72c2\u6b4c\u821e\u4e03\u5f26\uff0c\u7eb5\u6a2a\u5341\u4e5d\u95f4\u3002\u6325\u6beb\u884c\u4e91\u9038\uff0c\u6cfc\u58a8\u6b3a\u5929\u7136\u3002
p433
sVRemarkPYInitial
p434
g45
sVContactFlag
p435
I3
sVUin
p436
I0
sVNickName
p437
V\u8863\u6dfc
p438
sVAppAccountFlag
p439
I0
sVVerifyFlag
p440
I0
sVRemarkPYQuanPin
p441
g45
sVHeadImgUrl
p442
V/cgi-bin/mmwebwx-bin/webwxgeticon?seq=648559575&username=@5c2460818940c17315149df6ecbfc50afd489f53c918fc82aeb6067dc77d18f6&skey=@crypt_7a97a81e_5cd31d7995feba3757e6dc9bbe7af259
p443
sVKeyWord
p444
g45
sVProvince
p445
V\u6cb3\u5317
p446
sVPYInitial
p447
VYM
p448
sVRemarkName
p449
g45
sVIsOwner
p450
I0
sVSex
p451
I1
sVStarFriend
p452
I0
sVHideInputBarFlag
p453
I0
sVChatRoomId
p454
I0
sVEncryChatRoomId
p455
g45
sVAttrStatus
p456
I4197
sVStatues
p457
I0
stp458
Rp459
I1
bag27
(g31
g32
(dp460
VUserName
p461
V@eb4b1ca5de5b97d03bffa1f58f9ecc98669eff89ea4651b30f2c7dc6e7e648f7
p462
sVCity
p463
V\u79e6\u7687\u5c9b
p464
sVSnsFlag
p465
I1
sVDisplayName
p466
g45
sVUniFriend
p467
I0
sVMemberCount
p468
I0
sVOwnerUin
p469
I0
sVMemberList
p470
g43
sVAlias
p471
g45
sVPYQuanPin
p472
Vgejian
p473
sVSignature
p474
V\u65e0\u5173\u7d27\u8981\u7684\u4e1c\u897f\uff0c\u9519\u8fc7\u5c31\u9519\u8fc7\u5427
p475
sVRemarkPYInitial
p476
VYM
p477
sVContactFlag
p478
I3
sVUin
p479
I0
sVNickName
p480
V\u6401\u6d45
p481
sVAppAccountFlag
p482
I0
sVVerifyFlag
p483
I0
sVRemarkPYQuanPin
p484
Vyangman
p485
sVHeadImgUrl
p486
V/cgi-bin/mmwebwx-bin/webwxgeticon?seq=648560811&username=@eb4b1ca5de5b97d03bffa1f58f9ecc98669eff89ea4651b30f2c7dc6e7e648f7&skey=@crypt_7a97a81e_5cd31d7995feba3757e6dc9bbe7af259
p487
sVKeyWord
p488
g45
sVProvince
p489
V\u6cb3\u5317
p490
sVPYInitial
p491
VGJ
p492
sVRemarkName
p493
V\u6768\u66fc
p494
sVIsOwner
p495
I0
sVSex
p496
I2
sVStarFriend
p497
I0
sVHideInputBarFlag
p498
I0
sVChatRoomId
p499
I0
sVEncryChatRoomId
p500
g45
sVAttrStatus
p501
I6245
sVStatues
p502
I0
stp503
Rp504
I1
bag27
(g31
g32
(dp505
VUserName
p506
V@6817751a2549594022beef0a02c61ff3
p507
sVCity
p508
g45
sVSnsFlag
p509
I49
sVDisplayName
p510
g45
sVUniFriend
p511
I0
sVMemberCount
p512
I0
sVOwnerUin
p513
I0
sVMemberList
p514
g43
sVAlias
p515
g45
sVPYQuanPin
p516
Vkanjianmingtian
p517
sVSignature
p518
g45
sVRemarkPYInitial
p519
g45
sVContactFlag
p520
I3
sVUin
p521
I0
sVNickName
p522
V\u770b\u89c1\u660e\u5929
p523
sVAppAccountFlag
p524
I0
sVVerifyFlag
p525
I0
sVRemarkPYQuanPin
p526
g45
sVHeadImgUrl
p527
V/cgi-bin/mmwebwx-bin/webwxgeticon?seq=648561821&username=@6817751a2549594022beef0a02c61ff3&skey=@crypt_7a97a81e_5cd31d7995feba3757e6dc9bbe7af259
p528
sVKeyWord
p529
Vtia
p530
sVProvince
p531
V\u5317\u4eac
p532
sVPYInitial
p533
VKJMT
p534
sVRemarkName
p535
g45
sVIsOwner
p536
I0
sVSex
p537
I1
sVStarFriend
p538
I0
sVHideInputBarFlag
p539
I0
sVChatRoomId
p540
I0
sVEncryChatRoomId
p541
g45
sVAttrStatus
p542
I102439
sVStatues
p543
I0
stp544
Rp545
I1
bag27
(g31
g32
(dp546
VUserName
p547
V@fe9bb17120b9e44750eb087a35831c072ce23f21cda19ad7cc9616896e64d6ea
p548
sVCity
p549
g45
sVSnsFlag
p550
I17
sVDisplayName
p551
g45
sVUniFriend
p552
I0
sVMemberCount
p553
I0
sVOwnerUin
p554
I0
sVMemberList
p555
g43
sVAlias
p556
g45
sVPYQuanPin
p557
Vliuyuchen
p558
sVSignature
p559
V\u505a\u4eba\uff0c\u6700\u91cd\u8981\u7684\u5c31\u662f\u5f00\u5fc3
p560
sVRemarkPYInitial
p561
g45
sVContactFlag
p562
I3
sVUin
p563
I0
sVNickName
p564
V\u5218\u96e8\u6668
p565
sVAppAccountFlag
p566
I0
sVVerifyFlag
p567
I0
sVRemarkPYQuanPin
p568
g45
sVHeadImgUrl
p569
V/cgi-bin/mmwebwx-bin/webwxgeticon?seq=648559973&username=@fe9bb17120b9e44750eb087a35831c072ce23f21cda19ad7cc9616896e64d6ea&skey=@crypt_7a97a81e_5cd31d7995feba3757e6dc9bbe7af259
p570
sVKeyWord
p571
g45
sVProvince
p572
V\u5317\u4eac
p573
sVPYInitial
p574
VLYC
p575
sVRemarkName
p576
g45
sVIsOwner
p577
I0
sVSex
p578
I1
sVStarFriend
p579
I0
sVHideInputBarFlag
p580
I0
sVChatRoomId
p581
I0
sVEncryChatRoomId
p582
g45
sVAttrStatus
p583
I37853735
sVStatues
p584
I0
stp585
Rp586
I1
bag27
(g31
g32
(dp587
VUserName
p588
V@f4770414c53afb614dd3d6c3a5e7bc200641b8163c55afb8a33dff3a1630eff6
p589
sVCity
p590
V\u79e6\u7687\u5c9b
p591
sVSnsFlag
p592
I17
sVDisplayName
p593
g45
sVUniFriend
p594
I0
sVMemberCount
p595
I0
sVOwnerUin
p596
I0
sVMemberList
p597
g43
sVAlias
p598
g45
sVPYQuanPin
p599
Vmingtiannihao
p600
sVSignature
p601
V\u4e0e\u72fc\u5171\u821e
p602
sVRemarkPYInitial
p603
VZYC
p604
sVContactFlag
p605
I3
sVUin
p606
I0
sVNickName
p607
V\u660e\u5929~\u4f60\u597d
p608
sVAppAccountFlag
p609
I0
sVVerifyFlag
p610
I0
sVRemarkPYQuanPin
p611
Vzhengyaochong
p612
sVHeadImgUrl
p613
V/cgi-bin/mmwebwx-bin/webwxgeticon?seq=624920179&username=@f4770414c53afb614dd3d6c3a5e7bc200641b8163c55afb8a33dff3a1630eff6&skey=@crypt_7a97a81e_5cd31d7995feba3757e6dc9bbe7af259
p614
sVKeyWord
p615
g45
sVProvince
p616
V\u6cb3\u5317
p617
sVPYInitial
p618
VMTNH
p619
sVRemarkName
p620
V\u90d1\u8000\u5d07
p621
sVIsOwner
p622
I0
sVSex
p623
I1
sVStarFriend
p624
I0
sVHideInputBarFlag
p625
I0
sVChatRoomId
p626
I0
sVEncryChatRoomId
p627
g45
sVAttrStatus
p628
I12389
sVStatues
p629
I0
stp630
Rp631
I1
bag27
(g31
g32
(dp632
VUserName
p633
V@f4d7a52e4a79cfac94b7eeb50aff29c09dac3f4f479409accbba8d15d4d65b82
p634
sVCity
p635
g45
sVSnsFlag
p636
I17
sVDisplayName
p637
g45
sVUniFriend
p638
I0
sVMemberCount
p639
I0
sVOwnerUin
p640
I0
sVMemberList
p641
g43
sVAlias
p642
g45
sVPYQuanPin
p643
Vying
p644
sVSignature
p645
V\u4f60\u662f\u4e0d\u662f\u50bb\u554a\u2299\ufe4f\u2299
p646
sVRemarkPYInitial
p647
VLYY
p648
sVContactFlag
p649
I3
sVUin
p650
I0
sVNickName
p651
V\u9896
p652
sVAppAccountFlag
p653
I0
sVVerifyFlag
p654
I0
sVRemarkPYQuanPin
p655
Vliuyuying
p656
sVHeadImgUrl
p657
V/cgi-bin/mmwebwx-bin/webwxgeticon?seq=657941384&username=@f4d7a52e4a79cfac94b7eeb50aff29c09dac3f4f479409accbba8d15d4d65b82&skey=@crypt_7a97a81e_5cd31d7995feba3757e6dc9bbe7af259
p658
sVKeyWord
p659
g45
sVProvince
p660
g45
sVPYInitial
p661
g150
sVRemarkName
p662
V\u5218\u7389\u9896\u3002
p663
sVIsOwner
p664
I0
sVSex
p665
I2
sVStarFriend
p666
I0
sVHideInputBarFlag
p667
I0
sVChatRoomId
p668
I0
sVEncryChatRoomId
p669
g45
sVAttrStatus
p670
I132095
sVStatues
p671
I0
stp672
Rp673
I1
bag27
(g31
g32
(dp674
VUserName
p675
V@402e5546bff014562924495c8a27b41a656a8511b3735fb3bbb65a7b2bc9d7ff
p676
sVCity
p677
V\u4fdd\u5b9a
p678
sVSnsFlag
p679
I17
sVDisplayName
p680
g45
sVUniFriend
p681
I0
sVMemberCount
p682
I0
sVOwnerUin
p683
I0
sVMemberList
p684
g43
sVAlias
p685
g45
sVPYQuanPin
p686
g45
sVSignature
p687
g45
sVRemarkPYInitial
p688
VZWK
p689
sVContactFlag
p690
I3
sVUin
p691
I0
sVNickName
p692
V\ue810 \ue810 \ue810 \ue810 \ue810 \ue810 \ue810
p693
sVAppAccountFlag
p694
I0
sVVerifyFlag
p695
I0
sVRemarkPYQuanPin
p696
Vzhangwenkai
p697
sVHeadImgUrl
p698
V/cgi-bin/mmwebwx-bin/webwxgeticon?seq=657941173&username=@402e5546bff014562924495c8a27b41a656a8511b3735fb3bbb65a7b2bc9d7ff&skey=@crypt_7a97a81e_5cd31d7995feba3757e6dc9bbe7af259
p699
sVKeyWord
p700
g45
sVProvince
p701
V\u6cb3\u5317
p702
sVPYInitial
p703
g45
sVRemarkName
p704
V\u5f20\u6587\u51ef
p705
sVIsOwner
p706
I0
sVSex
p707
I1
sVStarFriend
p708
I0
sVHideInputBarFlag
p709
I0
sVChatRoomId
p710
I0
sVEncryChatRoomId
p711
g45
sVAttrStatus
p712
I16953447
sVStatues
p713
I0
stp714
Rp715
I1
bag27
(g31
g32
(dp716
VUserName
p717
V@3d1b8970e9c9eddde852b53ddca4ff2a3fde7e3bfaa52731ce14f3fdfaf28ae8
p718
sVCity
p719
V\u79e6\u7687\u5c9b
p720
sVSnsFlag
p721
I17
sVDisplayName
p722
g45
sVUniFriend
p723
I0
sVMemberCount
p724
I0
sVOwnerUin
p725
I0
sVMemberList
p726
g43
sVAlias
p727
g45
sVPYQuanPin
p728
Vtianshaohua
p729
sVSignature
p730
g45
sVRemarkPYInitial
p731
VTSH
p732
sVContactFlag
p733
I3
sVUin
p734
I0
sVNickName
p735
V\u7530\u5c11\u534e
p736
sVAppAccountFlag
p737
I0
sVVerifyFlag
p738
I0
sVRemarkPYQuanPin
p739
Vtianshaohua
p740
sVHeadImgUrl
p741
V/cgi-bin/mmwebwx-bin/webwxgeticon?seq=657944381&username=@3d1b8970e9c9eddde852b53ddca4ff2a3fde7e3bfaa52731ce14f3fdfaf28ae8&skey=@crypt_7a97a81e_5cd31d7995feba3757e6dc9bbe7af259
p742
sVKeyWord
p743
g45
sVProvince
p744
V\u6cb3\u5317
p745
sVPYInitial
p746
VTSH
p747
sVRemarkName
p748
V\u7530\u5c11\u534e
p749
sVIsOwner
p750
I0
sVSex
p751
I1
sVStarFriend
p752
I0
sVHideInputBarFlag
p753
I0
sVChatRoomId
p754
I0
sVEncryChatRoomId
p755
g45
sVAttrStatus
p756
I102501
sVStatues
p757
I0
stp758
Rp759
I1
bag27
(g31
g32
(dp760
VUserName
p761
V@b90f5b61a122beec258231c637525086a9a2d1e911ed61de036b42a943a29c73
p762
sVCity
p763
V\u5927\u5174
p764
sVSnsFlag
p765
I49
sVDisplayName
p766
g45
sVUniFriend
p767
I0
sVMemberCount
p768
I0
sVOwnerUin
p769
I0
sVMemberList
p770
g43
sVAlias
p771
g45
sVPYQuanPin
p772
Vbeiqing
p773
sVSignature
p774
g45
sVRemarkPYInitial
p775
g45
sVContactFlag
p776
I3
sVUin
p777
I0
sVNickName
p778
V\u5317\u6e05
p779
sVAppAccountFlag
p780
I0
sVVerifyFlag
p781
I0
sVRemarkPYQuanPin
p782
g45
sVHeadImgUrl
p783
V/cgi-bin/mmwebwx-bin/webwxgeticon?seq=657944491&username=@b90f5b61a122beec258231c637525086a9a2d1e911ed61de036b42a943a29c73&skey=@crypt_7a97a81e_5cd31d7995feba3757e6dc9bbe7af259
p784
sVKeyWord
p785
g45
sVProvince
p786
V\u5317\u4eac
p787
sVPYInitial
p788
VBQ
p789
sVRemarkName
p790
g45
sVIsOwner
p791
I0
sVSex
p792
I1
sVStarFriend
p793
I0
sVHideInputBarFlag
p794
I0
sVChatRoomId
p795
I0
sVEncryChatRoomId
p796
g45
sVAttrStatus
p797
I229413
sVStatues
p798
I0
stp799
Rp800
I1
bag27
(g31
g32
(dp801
VUserName
p802
V@4f68a4b0810d4a770cbbe76bd3373a6c2b17dd3e8cd8bc8a9cbd86d394b03abc
p803
sVCity
p804
V\u4fdd\u5b9a
p805
sVSnsFlag
p806
I49
sVDisplayName
p807
g45
sVUniFriend
p808
I0
sVMemberCount
p809
I0
sVOwnerUin
p810
I0
sVMemberList
p811
g43
sVAlias
p812
g45
sVPYQuanPin
p813
Vdiaodiao
p814
sVSignature
p815
V\u54fc\u7740\u6211\u7684\u8c03\u8c03\u3002
p816
sVRemarkPYInitial
p817
VYSY
p818
sVContactFlag
p819
I3
sVUin
p820
I0
sVNickName
p821
V\u8c03\u8c03
p822
sVAppAccountFlag
p823
I0
sVVerifyFlag
p824
I0
sVRemarkPYQuanPin
p825
Vyuanshaoying
p826
sVHeadImgUrl
p827
V/cgi-bin/mmwebwx-bin/webwxgeticon?seq=657945149&username=@4f68a4b0810d4a770cbbe76bd3373a6c2b17dd3e8cd8bc8a9cbd86d394b03abc&skey=@crypt_7a97a81e_5cd31d7995feba3757e6dc9bbe7af259
p828
sVKeyWord
p829
g45
sVProvince
p830
V\u6cb3\u5317
p831
sVPYInitial
p832
VDD
p833
sVRemarkName
p834
V\u82d1\u5c11\u82f1
p835
sVIsOwner
p836
I0
sVSex
p837
I2
sVStarFriend
p838
I0
sVHideInputBarFlag
p839
I0
sVChatRoomId
p840
I0
sVEncryChatRoomId
p841
g45
sVAttrStatus
p842
I102501
sVStatues
p843
I0
stp844
Rp845
I1
bag27
(g31
g32
(dp846
VUserName
p847
V@6a9a58aaa92e7a593ceb3df0994e22d0c68348900c225a7ef417b0690532b3aa
p848
sVCity
p849
g45
sVSnsFlag
p850
I17
sVDisplayName
p851
g45
sVUniFriend
p852
I0
sVMemberCount
p853
I0
sVOwnerUin
p854
I0
sVMemberList
p855
g43
sVAlias
p856
g45
sVPYQuanPin
p857
Vzhanglong
p858
sVSignature
p859
g45
sVRemarkPYInitial
p860
g45
sVContactFlag
p861
I3
sVUin
p862
I0
sVNickName
p863
V\u5f20\u9f99
p864
sVAppAccountFlag
p865
I0
sVVerifyFlag
p866
I0
sVRemarkPYQuanPin
p867
g45
sVHeadImgUrl
p868
V/cgi-bin/mmwebwx-bin/webwxgeticon?seq=657946461&username=@6a9a58aaa92e7a593ceb3df0994e22d0c68348900c225a7ef417b0690532b3aa&skey=@crypt_7a97a81e_5cd31d7995feba3757e6dc9bbe7af259
p869
sVKeyWord
p870
g45
sVProvince
p871
V\u5317\u4eac
p872
sVPYInitial
p873
VZL
p874
sVRemarkName
p875
g45
sVIsOwner
p876
I0
sVSex
p877
I0
sVStarFriend
p878
I0
sVHideInputBarFlag
p879
I0
sVChatRoomId
p880
I0
sVEncryChatRoomId
p881
g45
sVAttrStatus
p882
I16876453
sVStatues
p883
I0
stp884
Rp885
I1
bag27
(g31
g32
(dp886
VUserName
p887
V@48943e7e5417e258e00ef266031f4fe83ffb45320760999b23ccadc1ef8e0021
p888
sVCity
p889
V\u4fdd\u5b9a
p890
sVSnsFlag
p891
I17
sVDisplayName
p892
g45
sVUniFriend
p893
I0
sVMemberCount
p894
I0
sVOwnerUin
p895
I0
sVMemberList
p896
g43
sVAlias
p897
g45
sVPYQuanPin
p898
Vhaidechenshi
p899
sVSignature
p900
g45
sVRemarkPYInitial
p901
g45
sVContactFlag
p902
I65539
sVUin
p903
I0
sVNickName
p904
V\u6d77\u5e95\u6c89\u77f3.
p905
sVAppAccountFlag
p906
I0
sVVerifyFlag
p907
I0
sVRemarkPYQuanPin
p908
g45
sVHeadImgUrl
p909
V/cgi-bin/mmwebwx-bin/webwxgeticon?seq=620690752&username=@48943e7e5417e258e00ef266031f4fe83ffb45320760999b23ccadc1ef8e0021&skey=@crypt_7a97a81e_5cd31d7995feba3757e6dc9bbe7af259
p910
sVKeyWord
p911
g45
sVProvince
p912
V\u6cb3\u5317
p913
sVPYInitial
p914
VHDCS
p915
sVRemarkName
p916
g45
sVIsOwner
p917
I0
sVSex
p918
I1
sVStarFriend
p919
I0
sVHideInputBarFlag
p920
I0
sVChatRoomId
p921
I0
sVEncryChatRoomId
p922
g45
sVAttrStatus
p923
I36901
sVStatues
p924
I0
stp925
Rp926
I1
bag27
(g31
g32
(dp927
VUserName
p928
V@a9e7e8f71ae26410479095c69afb5d26d66478a1160d4ef5caf1bf2877f32cf8
p929
sVCity
p930
V\u671d\u9633
p931
sVSnsFlag
p932
I17
sVDisplayName
p933
g45
sVUniFriend
p934
I0
sVMemberCount
p935
I0
sVOwnerUin
p936
I0
sVMemberList
p937
g43
sVAlias
p938
g45
sVPYQuanPin
p939
Vwangdiudiu
p940
sVSignature
p941
V\u6211\u4eec\u8981\u5411\u524d\u770b\u5373\u4f7f\u751f\u6d3b\u5bf9\u4f60\u518d\u4e0d\u597d\u71ac\u8fc7\u53bb\u5c31\u597d\uff0c\u90a3\u6837\u624d\u4e0d\u7edd\u671b\u3002
p942
sVRemarkPYInitial
p943
VWXX
p944
sVContactFlag
p945
I3
sVUin
p946
I0
sVNickName
p947
V\u738b\u4e22\u4e22
p948
sVAppAccountFlag
p949
I0
sVVerifyFlag
p950
I0
sVRemarkPYQuanPin
p951
Vwangxiaoxue
p952
sVHeadImgUrl
p953
V/cgi-bin/mmwebwx-bin/webwxgeticon?seq=657946946&username=@a9e7e8f71ae26410479095c69afb5d26d66478a1160d4ef5caf1bf2877f32cf8&skey=@crypt_7a97a81e_5cd31d7995feba3757e6dc9bbe7af259
p954
sVKeyWord
p955
g45
sVProvince
p956
V\u5317\u4eac
p957
sVPYInitial
p958
VWDD
p959
sVRemarkName
p960
V\u738b\u5c0f\u96ea
p961
sVIsOwner
p962
I0
sVSex
p963
I2
sVStarFriend
p964
I0
sVHideInputBarFlag
p965
I0
sVChatRoomId
p966
I0
sVEncryChatRoomId
p967
g45
sVAttrStatus
p968
I102501
sVStatues
p969
I0
stp970
Rp971
I1
bag27
(g31
g32
(dp972
VUserName
p973
V@a766999bfaca8c02ff3075ab51b896b7c87a31d03bbc42c54d0b4e3473e2b76e
p974
sVCity
p975
g45
sVSnsFlag
p976
I1
sVDisplayName
p977
g45
sVUniFriend
p978
I0
sVMemberCount
p979
I0
sVOwnerUin
p980
I0
sVMemberList
p981
g43
sVAlias
p982
g45
sVPYQuanPin
p983
Vsongbaii
p984
sVSignature
p985
g45
sVRemarkPYInitial
p986
g45
sVContactFlag
p987
I3
sVUin
p988
I0
sVNickName
p989
V\u677e\u67cf..i
p990
sVAppAccountFlag
p991
I0
sVVerifyFlag
p992
I0
sVRemarkPYQuanPin
p993
g45
sVHeadImgUrl
p994
V/cgi-bin/mmwebwx-bin/webwxgeticon?seq=657947829&username=@a766999bfaca8c02ff3075ab51b896b7c87a31d03bbc42c54d0b4e3473e2b76e&skey=@crypt_7a97a81e_5cd31d7995feba3757e6dc9bbe7af259
p995
sVKeyWord
p996
g45
sVProvince
p997
g45
sVPYInitial
p998
VSBI
p999
sVRemarkName
p1000
g45
sVIsOwner
p1001
I0
sVSex
p1002
I1
sVStarFriend
p1003
I0
sVHideInputBarFlag
p1004
I0
sVChatRoomId
p1005
I0
sVEncryChatRoomId
p1006
g45
sVAttrStatus
p1007
I4133
sVStatues
p1008
I0
stp1009
Rp1010
I1
bag27
(g31
g32
(dp1011
VUserName
p1012
V@406161016103924bc26e0a7c63ac9b53a032d5b7c01db192fbd62e981216ed7f
p1013
sVCity
p1014
V\u4fdd\u5b9a
p1015
sVSnsFlag
p1016
I17
sVDisplayName
p1017
g45
sVUniFriend
p1018
I0
sVMemberCount
p1019
I0
sVOwnerUin
p1020
I0
sVMemberList
p1021
g43
sVAlias
p1022
g45
sVPYQuanPin
p1023
VCerca
p1024
sVSignature
p1025
g45
sVRemarkPYInitial
p1026
VZTC
p1027
sVContactFlag
p1028
I3
sVUin
p1029
I0
sVNickName
p1030
VCerca*
p1031
sVAppAccountFlag
p1032
I0
sVVerifyFlag
p1033
I0
sVRemarkPYQuanPin
p1034
Vzhangtanchen
p1035
sVHeadImgUrl
p1036
V/cgi-bin/mmwebwx-bin/webwxgeticon?seq=645460332&username=@406161016103924bc26e0a7c63ac9b53a032d5b7c01db192fbd62e981216ed7f&skey=@crypt_7a97a81e_5cd31d7995feba3757e6dc9bbe7af259
p1037
sVKeyWord
p1038
g45
sVProvince
p1039
V\u6cb3\u5317
p1040
sVPYInitial
p1041
VCERCA
p1042
sVRemarkName
p1043
V\u5f20\u63a2\u741b
p1044
sVIsOwner
p1045
I0
sVSex
p1046
I2
sVStarFriend
p1047
I0
sVHideInputBarFlag
p1048
I0
sVChatRoomId
p1049
I0
sVEncryChatRoomId
p1050
g45
sVAttrStatus
p1051
I16881701
sVStatues
p1052
I0
stp1053
Rp1054
I1
bag27
(g31
g32
(dp1055
VUserName
p1056
V@110057b029ea35de804aed2c894650420eafb74279a91ed778a1b72c65b0313d
p1057
sVCity
p1058
g45
sVSnsFlag
p1059
I17
sVDisplayName
p1060
g45
sVUniFriend
p1061
I0
sVMemberCount
p1062
I0
sVOwnerUin
p1063
I0
sVMemberList
p1064
g43
sVAlias
p1065
g45
sVPYQuanPin
p1066
Vyougushidenantongxue
p1067
sVSignature
p1068
V\u53ea\u8981\u6709\u4f60\u7684\u5730\u65b9\uff0c\u4fbf\u662f\u6211\u7684\u5bb6\uff01
p1069
sVRemarkPYInitial
p1070
VJZB
p1071
sVContactFlag
p1072
I3
sVUin
p1073
I0
sVNickName
p1074
V\u6709\u6545\u4e8b\u7684\u7537\u540c\u5b66
p1075
sVAppAccountFlag
p1076
I0
sVVerifyFlag
p1077
I0
sVRemarkPYQuanPin
p1078
Vjiangzebin
p1079
sVHeadImgUrl
p1080
V/cgi-bin/mmwebwx-bin/webwxgeticon?seq=626100208&username=@110057b029ea35de804aed2c894650420eafb74279a91ed778a1b72c65b0313d&skey=@crypt_7a97a81e_5cd31d7995feba3757e6dc9bbe7af259
p1081
sVKeyWord
p1082
g45
sVProvince
p1083
g45
sVPYInitial
p1084
VYGSDNTX
p1085
sVRemarkName
p1086
V\u6c5f\u6cfd\u658c
p1087
sVIsOwner
p1088
I0
sVSex
p1089
I1
sVStarFriend
p1090
I0
sVHideInputBarFlag
p1091
I0
sVChatRoomId
p1092
I0
sVEncryChatRoomId
p1093
g45
sVAttrStatus
p1094
I233575
sVStatues
p1095
I0
stp1096
Rp1097
I1
bag27
(g31
g32
(dp1098
VUserName
p1099
V@1b8fe6ad02af63f29355bfcb8bda03b080c017599767591d379e9b501b9a15d6
p1100
sVCity
p1101
V\u4fdd\u5b9a
p1102
sVSnsFlag
p1103
I17
sVDisplayName
p1104
g45
sVUniFriend
p1105
I0
sVMemberCount
p1106
I0
sVOwnerUin
p1107
I0
sVMemberList
p1108
g43
sVAlias
p1109
g45
sVPYQuanPin
p1110
Vhuanzi
p1111
sVSignature
p1112
V\u4f31\u8c01\u4fc4\u8c01<span class="emoji emoji2935"></span>\u4e00\u573a\u66a7\u6627\u3002\u3002\u3002
p1113
sVRemarkPYInitial
p1114
VYH
p1115
sVContactFlag
p1116
I3
sVUin
p1117
I0
sVNickName
p1118
V\u6b22\u5b50
p1119
sVAppAccountFlag
p1120
I0
sVVerifyFlag
p1121
I0
sVRemarkPYQuanPin
p1122
Vyanghuan
p1123
sVHeadImgUrl
p1124
V/cgi-bin/mmwebwx-bin/webwxgeticon?seq=657951957&username=@1b8fe6ad02af63f29355bfcb8bda03b080c017599767591d379e9b501b9a15d6&skey=@crypt_7a97a81e_5cd31d7995feba3757e6dc9bbe7af259
p1125
sVKeyWord
p1126
g45
sVProvince
p1127
V\u6cb3\u5317
p1128
sVPYInitial
p1129
VHZ
p1130
sVRemarkName
p1131
V\u6768\u6b22
p1132
sVIsOwner
p1133
I0
sVSex
p1134
I1
sVStarFriend
p1135
I0
sVHideInputBarFlag
p1136
I0
sVChatRoomId
p1137
I0
sVEncryChatRoomId
p1138
g45
sVAttrStatus
p1139
I102501
sVStatues
p1140
I0
stp1141
Rp1142
I1
bag27
(g31
g32
(dp1143
VUserName
p1144
V@d0cc07348339a3a63b4e461e14a74e8284fdff6d91385af5381ed6946742d829
p1145
sVCity
p1146
V\u79e6\u7687\u5c9b
p1147
sVSnsFlag
p1148
I17
sVDisplayName
p1149
g45
sVUniFriend
p1150
I0
sVMemberCount
p1151
I0
sVOwnerUin
p1152
I0
sVMemberList
p1153
g43
sVAlias
p1154
g45
sVPYQuanPin
p1155
Vchao
p1156
sVSignature
p1157
V\u522b\u72af\u62d6\u5ef6\u75c7
p1158
sVRemarkPYInitial
p1159
VHZ
p1160
sVContactFlag
p1161
I3
sVUin
p1162
I0
sVNickName
p1163
V\u8d85
p1164
sVAppAccountFlag
p1165
I0
sVVerifyFlag
p1166
I0
sVRemarkPYQuanPin
p1167
Vhezong
p1168
sVHeadImgUrl
p1169
V/cgi-bin/mmwebwx-bin/webwxgeticon?seq=657952314&username=@d0cc07348339a3a63b4e461e14a74e8284fdff6d91385af5381ed6946742d829&skey=@crypt_7a97a81e_5cd31d7995feba3757e6dc9bbe7af259
p1170
sVKeyWord
p1171
g45
sVProvince
p1172
V\u6cb3\u5317
p1173
sVPYInitial
p1174
VC
p1175
sVRemarkName
p1176
V\u8d3a\u603b
p1177
sVIsOwner
p1178
I0
sVSex
p1179
I1
sVStarFriend
p1180
I0
sVHideInputBarFlag
p1181
I0
sVChatRoomId
p1182
I0
sVEncryChatRoomId
p1183
g45
sVAttrStatus
p1184
I234173
sVStatues
p1185
I0
stp1186
Rp1187
I1
bag27
(g31
g32
(dp1188
VUserName
p1189
V@5f184b945026c468dca674e733c240ce7e9bee62dfc7877f02ca7f35360f2c21
p1190
sVCity
p1191
V\u54c8\u5c14\u6ee8
p1192
sVSnsFlag
p1193
I17
sVDisplayName
p1194
g45
sVUniFriend
p1195
I0
sVMemberCount
p1196
I0
sVOwnerUin
p1197
I0
sVMemberList
p1198
g43
sVAlias
p1199
g45
sVPYQuanPin
p1200
Vtademao
p1201
sVSignature
p1202
V\u552f\u613f\u5c81\u6708\u65e0\u5fe7\uff0c\u4f46\u6c42\u6545\u4eba\u65e0\u6059
p1203
sVRemarkPYInitial
p1204
VXGHEB
p1205
sVContactFlag
p1206
I1
sVUin
p1207
I0
sVNickName
p1208
V\u4ed6\u7684\u732b
p1209
sVAppAccountFlag
p1210
I0
sVVerifyFlag
p1211
I0
sVRemarkPYQuanPin
p1212
Vxiaogenghaerbin
p1213
sVHeadImgUrl
p1214
V/cgi-bin/mmwebwx-bin/webwxgeticon?seq=657953054&username=@5f184b945026c468dca674e733c240ce7e9bee62dfc7877f02ca7f35360f2c21&skey=@crypt_7a97a81e_5cd31d7995feba3757e6dc9bbe7af259
p1215
sVKeyWord
p1216
g45
sVProvince
p1217
V\u9ed1\u9f99\u6c5f
p1218
sVPYInitial
p1219
VTDM
p1220
sVRemarkName
p1221
V\u5c0f\u803f\u54c8\u5c14\u6ee8
p1222
sVIsOwner
p1223
I0
sVSex
p1224
I2
sVStarFriend
p1225
I0
sVHideInputBarFlag
p1226
I0
sVChatRoomId
p1227
I0
sVEncryChatRoomId
p1228
g45
sVAttrStatus
p1229
I233573
sVStatues
p1230
I0
stp1231
Rp1232
I1
bag27
(g31
g32
(dp1233
VUserName
p1234
V@9de761a14768585a21d827d1c062bead
p1235
sVCity
p1236
V\u671d\u9633
p1237
sVSnsFlag
p1238
I177
sVDisplayName
p1239
g45
sVUniFriend
p1240
I0
sVMemberCount
p1241
I0
sVOwnerUin
p1242
I0
sVMemberList
p1243
g43
sVAlias
p1244
g45
sVPYQuanPin
p1245
Vsunjianfeng
p1246
sVSignature
p1247
VFirewing Games \u706b\u306e\u7ffc 
p1248
sVRemarkPYInitial
p1249
VSJF
p1250
sVContactFlag
p1251
I1
sVUin
p1252
I0
sVNickName
p1253
V\u5b59\u5251\u950b
p1254
sVAppAccountFlag
p1255
I0
sVVerifyFlag
p1256
I0
sVRemarkPYQuanPin
p1257
Vsunjianfeng
p1258
sVHeadImgUrl
p1259
V/cgi-bin/mmwebwx-bin/webwxgeticon?seq=657946110&username=@9de761a14768585a21d827d1c062bead&skey=@crypt_7a97a81e_5cd31d7995feba3757e6dc9bbe7af259
p1260
sVKeyWord
p1261
Vsun
p1262
sVProvince
p1263
V\u5317\u4eac
p1264
sVPYInitial
p1265
VSJF
p1266
sVRemarkName
p1267
V\u5b59\u5251\u950b
p1268
sVIsOwner
p1269
I0
sVSex
p1270
I1
sVStarFriend
p1271
I0
sVHideInputBarFlag
p1272
I0
sVChatRoomId
p1273
I0
sVEncryChatRoomId
p1274
g45
sVAttrStatus
p1275
I4293567
sVStatues
p1276
I0
stp1277
Rp1278
I1
bag27
(g31
g32
(dp1279
VUserName
p1280
V@9b35b3587661f036e5a19cf5c5f18e8319eb303cf69e20d1ebc1dcc562611601
p1281
sVCity
p1282
V\u4fdd\u5b9a
p1283
sVSnsFlag
p1284
I17
sVDisplayName
p1285
g45
sVUniFriend
p1286
I0
sVMemberCount
p1287
I0
sVOwnerUin
p1288
I0
sVMemberList
p1289
g43
sVAlias
p1290
g45
sVPYQuanPin
p1291
Vdongfangcixiu
p1292
sVSignature
p1293
g45
sVRemarkPYInitial
p1294
g45
sVContactFlag
p1295
I3
sVUin
p1296
I0
sVNickName
p1297
V\u4e1c\u65b9\u523a\u7ee3
p1298
sVAppAccountFlag
p1299
I0
sVVerifyFlag
p1300
I0
sVRemarkPYQuanPin
p1301
g45
sVHeadImgUrl
p1302
V/cgi-bin/mmwebwx-bin/webwxgeticon?seq=657953776&username=@9b35b3587661f036e5a19cf5c5f18e8319eb303cf69e20d1ebc1dcc562611601&skey=@crypt_7a97a81e_5cd31d7995feba3757e6dc9bbe7af259
p1303
sVKeyWord
p1304
g45
sVProvince
p1305
V\u6cb3\u5317
p1306
sVPYInitial
p1307
VDFCX
p1308
sVRemarkName
p1309
g45
sVIsOwner
p1310
I0
sVSex
p1311
I2
sVStarFriend
p1312
I0
sVHideInputBarFlag
p1313
I0
sVChatRoomId
p1314
I0
sVEncryChatRoomId
p1315
g45
sVAttrStatus
p1316
I17006629
sVStatues
p1317
I0
stp1318
Rp1319
I1
bag27
(g31
g32
(dp1320
VUserName
p1321
V@23849fab90f60a65fc28be227b448d5f93263b4d7e7e49b1fd0c3d383eb8760e
p1322
sVCity
p1323
V\u6d77\u6dc0
p1324
sVSnsFlag
p1325
I17
sVDisplayName
p1326
g45
sVUniFriend
p1327
I0
sVMemberCount
p1328
I0
sVOwnerUin
p1329
I0
sVMemberList
p1330
g43
sVAlias
p1331
g45
sVPYQuanPin
p1332
Vzhaishi
p1333
sVSignature
p1334
g45
sVRemarkPYInitial
p1335
VDXG
p1336
sVContactFlag
p1337
I32771
sVUin
p1338
I0
sVNickName
p1339
V\u503a\u8bd5
p1340
sVAppAccountFlag
p1341
I0
sVVerifyFlag
p1342
I0
sVRemarkPYQuanPin
p1343
Vduxiaogang
p1344
sVHeadImgUrl
p1345
V/cgi-bin/mmwebwx-bin/webwxgeticon?seq=657953811&username=@23849fab90f60a65fc28be227b448d5f93263b4d7e7e49b1fd0c3d383eb8760e&skey=@crypt_7a97a81e_5cd31d7995feba3757e6dc9bbe7af259
p1346
sVKeyWord
p1347
g45
sVProvince
p1348
V\u5317\u4eac
p1349
sVPYInitial
p1350
VZS
p1351
sVRemarkName
p1352
V\u675c\u6653\u521a
p1353
sVIsOwner
p1354
I0
sVSex
p1355
I1
sVStarFriend
p1356
I0
sVHideInputBarFlag
p1357
I0
sVChatRoomId
p1358
I0
sVEncryChatRoomId
p1359
g45
sVAttrStatus
p1360
I233509
sVStatues
p1361
I0
stp1362
Rp1363
I1
bag27
(g31
g32
(dp1364
VUserName
p1365
V@35ca52899cd2732a4762dc3c6500c160545738a093ee3ffaf1335b6927b1d457
p1366
sVCity
p1367
V\u90af\u90f8
p1368
sVSnsFlag
p1369
I17
sVDisplayName
p1370
g45
sVUniFriend
p1371
I0
sVMemberCount
p1372
I0
sVOwnerUin
p1373
I0
sVMemberList
p1374
g43
sVAlias
p1375
g45
sVPYQuanPin
p1376
Vshiran
p1377
sVSignature
p1378
g45
sVRemarkPYInitial
p1379
VWSQ
p1380
sVContactFlag
p1381
I3
sVUin
p1382
I0
sVNickName
p1383
V\u91ca\u7136
p1384
sVAppAccountFlag
p1385
I0
sVVerifyFlag
p1386
I0
sVRemarkPYQuanPin
p1387
Vwushiqi
p1388
sVHeadImgUrl
p1389
V/cgi-bin/mmwebwx-bin/webwxgeticon?seq=657954067&username=@35ca52899cd2732a4762dc3c6500c160545738a093ee3ffaf1335b6927b1d457&skey=@crypt_7a97a81e_5cd31d7995feba3757e6dc9bbe7af259
p1390
sVKeyWord
p1391
g45
sVProvince
p1392
V\u6cb3\u5317
p1393
sVPYInitial
p1394
VSR
p1395
sVRemarkName
p1396
V\u6b66\u4e8b\u5947\u3002
p1397
sVIsOwner
p1398
I0
sVSex
p1399
I1
sVStarFriend
p1400
I0
sVHideInputBarFlag
p1401
I0
sVChatRoomId
p1402
I0
sVEncryChatRoomId
p1403
g45
sVAttrStatus
p1404
I135805
sVStatues
p1405
I0
stp1406
Rp1407
I1
bag27
(g31
g32
(dp1408
VUserName
p1409
V@92addf17e942abde9b0c5d7bb74517dee702c08c135cb56a1f771241a817cb10
p1410
sVCity
p1411
V\u4fdd\u5b9a
p1412
sVSnsFlag
p1413
I17
sVDisplayName
p1414
g45
sVUniFriend
p1415
I0
sVMemberCount
p1416
I0
sVOwnerUin
p1417
I0
sVMemberList
p1418
g43
sVAlias
p1419
g45
sVPYQuanPin
p1420
Vspanclassemojiemoji2600span
p1421
sVSignature
p1422
V<span class="emoji emoji2600"></span> <span class="emoji emoji2600"></span> <span class="emoji emoji2600"></span> <span class="emoji emoji2600"></span> <span class="emoji emoji2600"></span> <span class="emoji emoji2600"></span> <span class="emoji emoji2600"></span> <span class="emoji emoji2600"></span> <span class="emoji emoji2600"></span> <span class="emoji emoji2600"></span> <span class="emoji emoji2600"></span> <span class="emoji emoji2600"></span> <span class="emoji emoji2600"></span> <span class="emoji emoji2600"></span> <span class="emoji emoji2600"></span> <span class="emoji emoji2600"></span> <span class="emoji emoji2600"></span> <span class="emoji emoji2600"></span> <span class="emoji emoji2600"></span> <span class="emoji emoji2600"></span>
p1423
sVRemarkPYInitial
p1424
VLXC
p1425
sVContactFlag
p1426
I1
sVUin
p1427
I0
sVNickName
p1428
V\u2600
p1429
sVAppAccountFlag
p1430
I0
sVVerifyFlag
p1431
I0
sVRemarkPYQuanPin
p1432
Vlinxuechen
p1433
sVHeadImgUrl
p1434
V/cgi-bin/mmwebwx-bin/webwxgeticon?seq=648553774&username=@92addf17e942abde9b0c5d7bb74517dee702c08c135cb56a1f771241a817cb10&skey=@crypt_7a97a81e_5cd31d7995feba3757e6dc9bbe7af259
p1435
sVKeyWord
p1436
g45
sVProvince
p1437
V\u6cb3\u5317
p1438
sVPYInitial
p1439
VSPANCLASSEMOJIEMOJI2600SPAN
p1440
sVRemarkName
p1441
V\u853a\u96ea\u6668
p1442
sVIsOwner
p1443
I0
sVSex
p1444
I2
sVStarFriend
p1445
I0
sVHideInputBarFlag
p1446
I0
sVChatRoomId
p1447
I0
sVEncryChatRoomId
p1448
g45
sVAttrStatus
p1449
I4133
sVStatues
p1450
I0
stp1451
Rp1452
I1
bag27
(g31
g32
(dp1453
VUserName
p1454
V@d063c3e2f0c61509d3a7b762fc883504
p1455
sVCity
p1456
g45
sVSnsFlag
p1457
I49
sVDisplayName
p1458
g45
sVUniFriend
p1459
I0
sVMemberCount
p1460
I0
sVOwnerUin
p1461
I0
sVMemberList
p1462
g43
sVAlias
p1463
g45
sVPYQuanPin
p1464
Vmengdaobuhuiyouyongdespanclassemojiemoji1f3a3span
p1465
sVSignature
p1466
V\u8ffd\u9010
p1467
sVRemarkPYInitial
p1468
VXR
p1469
sVContactFlag
p1470
I3
sVUin
p1471
I0
sVNickName
p1472
V\u68a6\u5230\u4e0d\u4f1a\u6e38\u6cf3\u7684\U0001f3a3
p1473
sVAppAccountFlag
p1474
I0
sVVerifyFlag
p1475
I0
sVRemarkPYQuanPin
p1476
Vxinrui
p1477
sVHeadImgUrl
p1478
V/cgi-bin/mmwebwx-bin/webwxgeticon?seq=648561731&username=@d063c3e2f0c61509d3a7b762fc883504&skey=@crypt_7a97a81e_5cd31d7995feba3757e6dc9bbe7af259
p1479
sVKeyWord
p1480
Vhap
p1481
sVProvince
p1482
g45
sVPYInitial
p1483
VMDBHYYDSPANCLASSEMOJIEMOJI1F3A3SPAN
p1484
sVRemarkName
p1485
V\u8f9b\u854a
p1486
sVIsOwner
p1487
I0
sVSex
p1488
I2
sVStarFriend
p1489
I0
sVHideInputBarFlag
p1490
I0
sVChatRoomId
p1491
I0
sVEncryChatRoomId
p1492
g45
sVAttrStatus
p1493
I16891111
sVStatues
p1494
I0
stp1495
Rp1496
I1
bag27
(g31
g32
(dp1497
VUserName
p1498
V@92436ec382e3d525f119e0795e8c0e8c8aa3f6a88c9703eb60395b52e99f0cb8
p1499
sVCity
p1500
V\u6d77\u6dc0
p1501
sVSnsFlag
p1502
I49
sVDisplayName
p1503
g45
sVUniFriend
p1504
I0
sVMemberCount
p1505
I0
sVOwnerUin
p1506
I0
sVMemberList
p1507
g43
sVAlias
p1508
g45
sVPYQuanPin
p1509
VLydia
p1510
sVSignature
p1511
V\u6211\u81ea\u662f\u5e74\u5c11\uff0c\u97f6\u534e\u503e\u8d1f\u3002
p1512
sVRemarkPYInitial
p1513
VZT
p1514
sVContactFlag
p1515
I3
sVUin
p1516
I0
sVNickName
p1517
VLydia
p1518
sVAppAccountFlag
p1519
I0
sVVerifyFlag
p1520
I0
sVRemarkPYQuanPin
p1521
Vzuotian
p1522
sVHeadImgUrl
p1523
V/cgi-bin/mmwebwx-bin/webwxgeticon?seq=657955037&username=@92436ec382e3d525f119e0795e8c0e8c8aa3f6a88c9703eb60395b52e99f0cb8&skey=@crypt_7a97a81e_5cd31d7995feba3757e6dc9bbe7af259
p1524
sVKeyWord
p1525
Vzuo
p1526
sVProvince
p1527
V\u5317\u4eac
p1528
sVPYInitial
p1529
VLYDIA
p1530
sVRemarkName
p1531
V\u5de6\u751c
p1532
sVIsOwner
p1533
I0
sVSex
p1534
I2
sVStarFriend
p1535
I0
sVHideInputBarFlag
p1536
I0
sVChatRoomId
p1537
I0
sVEncryChatRoomId
p1538
g45
sVAttrStatus
p1539
I104565
sVStatues
p1540
I0
stp1541
Rp1542
I1
bag27
(g31
g32
(dp1543
VUserName
p1544
V@cc6cf2d2330658fec9a69287874fa104ace96720de08e74c1c9257c63f30156a
p1545
sVCity
p1546
V\u671d\u9633
p1547
sVSnsFlag
p1548
I17
sVDisplayName
p1549
g45
sVUniFriend
p1550
I0
sVMemberCount
p1551
I0
sVOwnerUin
p1552
I0
sVMemberList
p1553
g43
sVAlias
p1554
g45
sVPYQuanPin
p1555
Vyegouheiguangcailiang
p1556
sVSignature
p1557
V\u4eba\u592a\u5584\u826f\u522b\u4eba\u4ee5\u4e3a\u4f60\u662f\u5e94\u5f53\u7684\u4ee5\u540e\u8be5\u6837\u5c31\u548b\u6837\u54e5\u7684\u7206\u813e\u6c14\u56de\u6765\u4e86
p1558
sVRemarkPYInitial
p1559
VFJJ
p1560
sVContactFlag
p1561
I3
sVUin
p1562
I0
sVNickName
p1563
V\u591c\u591f\u9ed1\u3002\u5149\u624d\u4eae
p1564
sVAppAccountFlag
p1565
I0
sVVerifyFlag
p1566
I0
sVRemarkPYQuanPin
p1567
Vfengjunjie
p1568
sVHeadImgUrl
p1569
V/cgi-bin/mmwebwx-bin/webwxgeticon?seq=657944852&username=@cc6cf2d2330658fec9a69287874fa104ace96720de08e74c1c9257c63f30156a&skey=@crypt_7a97a81e_5cd31d7995feba3757e6dc9bbe7af259
p1570
sVKeyWord
p1571
g45
sVProvince
p1572
V\u5317\u4eac
p1573
sVPYInitial
p1574
VYGHGCL
p1575
sVRemarkName
p1576
V\u51af\u4fca\u6770
p1577
sVIsOwner
p1578
I0
sVSex
p1579
I1
sVStarFriend
p1580
I0
sVHideInputBarFlag
p1581
I0
sVChatRoomId
p1582
I0
sVEncryChatRoomId
p1583
g45
sVAttrStatus
p1584
L2147586053L
sVStatues
p1585
I0
stp1586
Rp1587
I1
bag27
(g31
g32
(dp1588
VUserName
p1589
V@91add4951eab414e4c411b37d4df58bfd9f6b2696a2a0112a34702cce99cab65
p1590
sVCity
p1591
V\u4fdd\u5b9a
p1592
sVSnsFlag
p1593
I1
sVDisplayName
p1594
g45
sVUniFriend
p1595
I0
sVMemberCount
p1596
I0
sVOwnerUin
p1597
I0
sVMemberList
p1598
g43
sVAlias
p1599
g45
sVPYQuanPin
p1600
Vkuaiyuemeiyitian
p1601
sVSignature
p1602
g45
sVRemarkPYInitial
p1603
g45
sVContactFlag
p1604
I3
sVUin
p1605
I0
sVNickName
p1606
V\u5feb\u4e50\u6bcf\u4e00\u5929
p1607
sVAppAccountFlag
p1608
I0
sVVerifyFlag
p1609
I0
sVRemarkPYQuanPin
p1610
g45
sVHeadImgUrl
p1611
V/cgi-bin/mmwebwx-bin/webwxgeticon?seq=657944542&username=@91add4951eab414e4c411b37d4df58bfd9f6b2696a2a0112a34702cce99cab65&skey=@crypt_7a97a81e_5cd31d7995feba3757e6dc9bbe7af259
p1612
sVKeyWord
p1613
g45
sVProvince
p1614
V\u6cb3\u5317
p1615
sVPYInitial
p1616
VKYMYT
p1617
sVRemarkName
p1618
g45
sVIsOwner
p1619
I0
sVSex
p1620
I2
sVStarFriend
p1621
I0
sVHideInputBarFlag
p1622
I0
sVChatRoomId
p1623
I0
sVEncryChatRoomId
p1624
g45
sVAttrStatus
p1625
I4133
sVStatues
p1626
I0
stp1627
Rp1628
I1
bag27
(g31
g32
(dp1629
VUserName
p1630
V@a3a5cfa0acf1deb80e5143255a5fecb8
p1631
sVCity
p1632
V\u77f3\u5bb6\u5e84
p1633
sVSnsFlag
p1634
I17
sVDisplayName
p1635
g45
sVUniFriend
p1636
I0
sVMemberCount
p1637
I0
sVOwnerUin
p1638
I0
sVMemberList
p1639
g43
sVAlias
p1640
g45
sVPYQuanPin
p1641
Vchaoren
p1642
sVSignature
p1643
V\u540d\u5b57\uff0c\u4e0d\u4ec5\u4ec5\u662f\u4e00\u4e2a\u7b26\u53f7
p1644
sVRemarkPYInitial
p1645
VWXP
p1646
sVContactFlag
p1647
I3
sVUin
p1648
I0
sVNickName
p1649
V\u8d85\u4eba
p1650
sVAppAccountFlag
p1651
I0
sVVerifyFlag
p1652
I0
sVRemarkPYQuanPin
p1653
Vwuxupeng
p1654
sVHeadImgUrl
p1655
V/cgi-bin/mmwebwx-bin/webwxgeticon?seq=648561275&username=@a3a5cfa0acf1deb80e5143255a5fecb8&skey=@crypt_7a97a81e_5cd31d7995feba3757e6dc9bbe7af259
p1656
sVKeyWord
p1657
Vcha
p1658
sVProvince
p1659
V\u6cb3\u5317
p1660
sVPYInitial
p1661
VCR
p1662
sVRemarkName
p1663
V\u6b66\u65ed\u9e4f
p1664
sVIsOwner
p1665
I0
sVSex
p1666
I1
sVStarFriend
p1667
I0
sVHideInputBarFlag
p1668
I0
sVChatRoomId
p1669
I0
sVEncryChatRoomId
p1670
g45
sVAttrStatus
p1671
I8263
sVStatues
p1672
I0
stp1673
Rp1674
I1
bag27
(g31
g32
(dp1675
VUserName
p1676
V@3f314847b53f4fd4e722d0b82844e6b6f9a53bd0dd70cc5ec0cc447b19be3aa9
p1677
sVCity
p1678
V\u79e6\u7687\u5c9b
p1679
sVSnsFlag
p1680
I17
sVDisplayName
p1681
g45
sVUniFriend
p1682
I0
sVMemberCount
p1683
I0
sVOwnerUin
p1684
I0
sVMemberList
p1685
g43
sVAlias
p1686
g45
sVPYQuanPin
p1687
VWriter
p1688
sVSignature
p1689
V\u9053\u51b2\u800c\u7528\u4e4b\u6216\u4e0d\u76c8\u3002
p1690
sVRemarkPYInitial
p1691
VLWH
p1692
sVContactFlag
p1693
I3
sVUin
p1694
I0
sVNickName
p1695
VWriter
p1696
sVAppAccountFlag
p1697
I0
sVVerifyFlag
p1698
I0
sVRemarkPYQuanPin
p1699
Vluoweihua
p1700
sVHeadImgUrl
p1701
V/cgi-bin/mmwebwx-bin/webwxgeticon?seq=638455113&username=@3f314847b53f4fd4e722d0b82844e6b6f9a53bd0dd70cc5ec0cc447b19be3aa9&skey=@crypt_7a97a81e_5cd31d7995feba3757e6dc9bbe7af259
p1702
sVKeyWord
p1703
g45
sVProvince
p1704
V\u6cb3\u5317
p1705
sVPYInitial
p1706
VWRITER
p1707
sVRemarkName
p1708
V\u7f57\u552f\u534e
p1709
sVIsOwner
p1710
I0
sVSex
p1711
I1
sVStarFriend
p1712
I0
sVHideInputBarFlag
p1713
I0
sVChatRoomId
p1714
I0
sVEncryChatRoomId
p1715
g45
sVAttrStatus
p1716
I163879
sVStatues
p1717
I0
stp1718
Rp1719
I1
bag27
(g31
g32
(dp1720
VUserName
p1721
V@3588149cc2e6fc66d63b2260c45e0e9ffd95c5cee0e587f6b2a73faa5112392d
p1722
sVCity
p1723
V\u79e6\u7687\u5c9b
p1724
sVSnsFlag
p1725
I1
sVDisplayName
p1726
g45
sVUniFriend
p1727
I0
sVMemberCount
p1728
I0
sVOwnerUin
p1729
I0
sVMemberList
p1730
g43
sVAlias
p1731
g45
sVPYQuanPin
p1732
VMrdu
p1733
sVSignature
p1734
V\u3002\u3002\u3002\u3002\u3002
p1735
sVRemarkPYInitial
p1736
VDYS
p1737
sVContactFlag
p1738
I3
sVUin
p1739
I0
sVNickName
p1740
VMr.\u675c
p1741
sVAppAccountFlag
p1742
I0
sVVerifyFlag
p1743
I0
sVRemarkPYQuanPin
p1744
Vduyanshen
p1745
sVHeadImgUrl
p1746
V/cgi-bin/mmwebwx-bin/webwxgeticon?seq=648557757&username=@3588149cc2e6fc66d63b2260c45e0e9ffd95c5cee0e587f6b2a73faa5112392d&skey=@crypt_7a97a81e_5cd31d7995feba3757e6dc9bbe7af259
p1747
sVKeyWord
p1748
g45
sVProvince
p1749
V\u6cb3\u5317
p1750
sVPYInitial
p1751
VMRD
p1752
sVRemarkName
p1753
V\u675c\u5f66\u5c7e
p1754
sVIsOwner
p1755
I0
sVSex
p1756
I1
sVStarFriend
p1757
I0
sVHideInputBarFlag
p1758
I0
sVChatRoomId
p1759
I0
sVEncryChatRoomId
p1760
g45
sVAttrStatus
p1761
I135269
sVStatues
p1762
I0
stp1763
Rp1764
I1
bag27
(g31
g32
(dp1765
VUserName
p1766
V@03ec66069d7cc8cdeca58dbeeed3ca5dfdad61c974610e29a6674cf36ba628d1
p1767
sVCity
p1768
V\u6ca7\u5dde
p1769
sVSnsFlag
p1770
I16
sVDisplayName
p1771
g45
sVUniFriend
p1772
I0
sVMemberCount
p1773
I0
sVOwnerUin
p1774
I0
sVMemberList
p1775
g43
sVAlias
p1776
g45
sVPYQuanPin
p1777
VCC
p1778
sVSignature
p1779
VX  H   N   X   Y   J   H\u000a\u000aX  Y   J    H
p1780
sVRemarkPYInitial
p1781
VWQQ
p1782
sVContactFlag
p1783
I3
sVUin
p1784
I0
sVNickName
p1785
VCC
p1786
sVAppAccountFlag
p1787
I0
sVVerifyFlag
p1788
I0
sVRemarkPYQuanPin
p1789
Vwangqianqian
p1790
sVHeadImgUrl
p1791
V/cgi-bin/mmwebwx-bin/webwxgeticon?seq=620440182&username=@03ec66069d7cc8cdeca58dbeeed3ca5dfdad61c974610e29a6674cf36ba628d1&skey=@crypt_7a97a81e_5cd31d7995feba3757e6dc9bbe7af259
p1792
sVKeyWord
p1793
g45
sVProvince
p1794
V\u6cb3\u5317
p1795
sVPYInitial
p1796
VCC
p1797
sVRemarkName
p1798
V\u738b\u831c\u831c
p1799
sVIsOwner
p1800
I0
sVSex
p1801
I2
sVStarFriend
p1802
I0
sVHideInputBarFlag
p1803
I0
sVChatRoomId
p1804
I0
sVEncryChatRoomId
p1805
g45
sVAttrStatus
p1806
I98493
sVStatues
p1807
I0
stp1808
Rp1809
I1
bag27
(g31
g32
(dp1810
VUserName
p1811
V@5da1362c270cf48e60b58e4c29b0ff44883d3ad02d3f0b91a108c696caf5887e
p1812
sVCity
p1813
V\u660c\u5e73
p1814
sVSnsFlag
p1815
I17
sVDisplayName
p1816
g45
sVUniFriend
p1817
I0
sVMemberCount
p1818
I0
sVOwnerUin
p1819
I0
sVMemberList
p1820
g43
sVAlias
p1821
g45
sVPYQuanPin
p1822
Vyongchao
p1823
sVSignature
p1824
g45
sVRemarkPYInitial
p1825
VZF
p1826
sVContactFlag
p1827
I3
sVUin
p1828
I0
sVNickName
p1829
V\u6c38\u8d85
p1830
sVAppAccountFlag
p1831
I0
sVVerifyFlag
p1832
I0
sVRemarkPYQuanPin
p1833
Vzufang
p1834
sVHeadImgUrl
p1835
V/cgi-bin/mmwebwx-bin/webwxgeticon?seq=648559893&username=@5da1362c270cf48e60b58e4c29b0ff44883d3ad02d3f0b91a108c696caf5887e&skey=@crypt_7a97a81e_5cd31d7995feba3757e6dc9bbe7af259
p1836
sVKeyWord
p1837
g45
sVProvince
p1838
V\u5317\u4eac
p1839
sVPYInitial
p1840
VYC
p1841
sVRemarkName
p1842
V\u79df\u623f
p1843
sVIsOwner
p1844
I0
sVSex
p1845
I1
sVStarFriend
p1846
I0
sVHideInputBarFlag
p1847
I0
sVChatRoomId
p1848
I0
sVEncryChatRoomId
p1849
g45
sVAttrStatus
p1850
L2147487845L
sVStatues
p1851
I0
stp1852
Rp1853
I1
bag27
(g31
g32
(dp1854
VUserName
p1855
V@d1f090981dcb87efc6b0c2aab700fada1d5d5d2f8428cd2e05ac5e5bdeee51d3
p1856
sVCity
p1857
V\u671d\u9633
p1858
sVSnsFlag
p1859
I49
sVDisplayName
p1860
g45
sVUniFriend
p1861
I0
sVMemberCount
p1862
I0
sVOwnerUin
p1863
I0
sVMemberList
p1864
g43
sVAlias
p1865
g45
sVPYQuanPin
p1866
VNicoleLi
p1867
sVSignature
p1868
V\u53c8\u7f8e\u53c8\u6709\u94b1\uff0c\u505a\u7740\u81ea\u5df1\u559c\u6b22\u7684\u4e8b\uff01
p1869
sVRemarkPYInitial
p1870
g45
sVContactFlag
p1871
I3
sVUin
p1872
I0
sVNickName
p1873
VNicole Li
p1874
sVAppAccountFlag
p1875
I0
sVVerifyFlag
p1876
I0
sVRemarkPYQuanPin
p1877
g45
sVHeadImgUrl
p1878
V/cgi-bin/mmwebwx-bin/webwxgeticon?seq=657944779&username=@d1f090981dcb87efc6b0c2aab700fada1d5d5d2f8428cd2e05ac5e5bdeee51d3&skey=@crypt_7a97a81e_5cd31d7995feba3757e6dc9bbe7af259
p1879
sVKeyWord
p1880
g45
sVProvince
p1881
V\u5317\u4eac
p1882
sVPYInitial
p1883
VNICOLELI
p1884
sVRemarkName
p1885
g45
sVIsOwner
p1886
I0
sVSex
p1887
I2
sVStarFriend
p1888
I0
sVHideInputBarFlag
p1889
I0
sVChatRoomId
p1890
I0
sVEncryChatRoomId
p1891
g45
sVAttrStatus
p1892
I4425831
sVStatues
p1893
I0
stp1894
Rp1895
I1
bag27
(g31
g32
(dp1896
VUserName
p1897
V@703bb4da5ff6ea00837e81b7b3364c9ecd03116a01dd133d9043cc48f328a4b1
p1898
sVCity
p1899
V\u4fdd\u5b9a
p1900
sVSnsFlag
p1901
I49
sVDisplayName
p1902
g45
sVUniFriend
p1903
I0
sVMemberCount
p1904
I0
sVOwnerUin
p1905
I0
sVMemberList
p1906
g43
sVAlias
p1907
g45
sVPYQuanPin
p1908
VIzzyspanclassemojiemoji1f34aspan
p1909
sVSignature
p1910
V\u611f\u8c22\u6bcf\u4e00\u6b21\u7684\u989d\u5916\u7559\u610f
p1911
sVRemarkPYInitial
p1912
VZMM
p1913
sVContactFlag
p1914
I1
sVUin
p1915
I0
sVNickName
p1916
VIzzy\U0001f34a
p1917
sVAppAccountFlag
p1918
I0
sVVerifyFlag
p1919
I0
sVRemarkPYQuanPin
p1920
Vzhangmingming
p1921
sVHeadImgUrl
p1922
V/cgi-bin/mmwebwx-bin/webwxgeticon?seq=657965092&username=@703bb4da5ff6ea00837e81b7b3364c9ecd03116a01dd133d9043cc48f328a4b1&skey=@crypt_7a97a81e_5cd31d7995feba3757e6dc9bbe7af259
p1923
sVKeyWord
p1924
g45
sVProvince
p1925
V\u6cb3\u5317
p1926
sVPYInitial
p1927
VIZZYSPANCLASSEMOJIEMOJI1F34ASPAN
p1928
sVRemarkName
p1929
V\u5f20\u660e\u660e
p1930
sVIsOwner
p1931
I0
sVSex
p1932
I2
sVStarFriend
p1933
I0
sVHideInputBarFlag
p1934
I0
sVChatRoomId
p1935
I0
sVEncryChatRoomId
p1936
g45
sVAttrStatus
p1937
I4429861
sVStatues
p1938
I0
stp1939
Rp1940
I1
bag27
(g31
g32
(dp1941
VUserName
p1942
V@daf082aad8b83f7efb1d6de96b45c73c
p1943
sVCity
p1944
V\u4fdd\u5b9a
p1945
sVSnsFlag
p1946
I17
sVDisplayName
p1947
g45
sVUniFriend
p1948
I0
sVMemberCount
p1949
I0
sVOwnerUin
p1950
I0
sVMemberList
p1951
g43
sVAlias
p1952
g45
sVPYQuanPin
p1953
VaiyaoaiyaoOo
p1954
sVSignature
p1955
V\U0001f596
p1956
sVRemarkPYInitial
p1957
VYLN
p1958
sVContactFlag
p1959
I3
sVUin
p1960
I0
sVNickName
p1961
V_\u54ce\u5406\u54ce\u5406O_o
p1962
sVAppAccountFlag
p1963
I0
sVVerifyFlag
p1964
I0
sVRemarkPYQuanPin
p1965
Vyulina
p1966
sVHeadImgUrl
p1967
V/cgi-bin/mmwebwx-bin/webwxgeticon?seq=646600216&username=@daf082aad8b83f7efb1d6de96b45c73c&skey=@crypt_7a97a81e_5cd31d7995feba3757e6dc9bbe7af259
p1968
sVKeyWord
p1969
Vqq-
p1970
sVProvince
p1971
V\u6cb3\u5317
p1972
sVPYInitial
p1973
VAYAYOO
p1974
sVRemarkName
p1975
V\u4e8e\u4e3d\u5a1c
p1976
sVIsOwner
p1977
I0
sVSex
p1978
I2
sVStarFriend
p1979
I0
sVHideInputBarFlag
p1980
I0
sVChatRoomId
p1981
I0
sVEncryChatRoomId
p1982
g45
sVAttrStatus
p1983
I4196
sVStatues
p1984
I0
stp1985
Rp1986
I1
bag27
(g31
g32
(dp1987
VUserName
p1988
V@f5be330d252eb06be5fbca0cc7e0da05c5c4110091267a1ae42e153e763652ef
p1989
sVCity
p1990
VMelbourne
p1991
sVSnsFlag
p1992
I17
sVDisplayName
p1993
g45
sVUniFriend
p1994
I0
sVMemberCount
p1995
I0
sVOwnerUin
p1996
I0
sVMemberList
p1997
g43
sVAlias
p1998
g45
sVPYQuanPin
p1999
VF
p2000
sVSignature
p2001
V\u613f\u4f60\u5fe0\u4e8e\u81ea\u5df1\uff0c\u6d3b\u7684\u8fd8\u50cf\u81ea\u5df1
p2002
sVRemarkPYInitial
p2003
VLPF
p2004
sVContactFlag
p2005
I3
sVUin
p2006
I0
sVNickName
p2007
g2000
sVAppAccountFlag
p2008
I0
sVVerifyFlag
p2009
I0
sVRemarkPYQuanPin
p2010
Vlipengfei
p2011
sVHeadImgUrl
p2012
V/cgi-bin/mmwebwx-bin/webwxgeticon?seq=657947598&username=@f5be330d252eb06be5fbca0cc7e0da05c5c4110091267a1ae42e153e763652ef&skey=@crypt_7a97a81e_5cd31d7995feba3757e6dc9bbe7af259
p2013
sVKeyWord
p2014
g45
sVProvince
p2015
VVictoria
p2016
sVPYInitial
p2017
g2000
sVRemarkName
p2018
V\u674e\u9e4f\u98de
p2019
sVIsOwner
p2020
I0
sVSex
p2021
I1
sVStarFriend
p2022
I0
sVHideInputBarFlag
p2023
I0
sVChatRoomId
p2024
I0
sVEncryChatRoomId
p2025
g45
sVAttrStatus
p2026
I106981
sVStatues
p2027
I0
stp2028
Rp2029
I1
bag27
(g31
g32
(dp2030
VUserName
p2031
V@fd130bbcf9124acd68fd4787f3a582cb6186915e17ef74d9ce6b0508286e4f63
p2032
sVCity
p2033
V\u79e6\u7687\u5c9b
p2034
sVSnsFlag
p2035
I17
sVDisplayName
p2036
g45
sVUniFriend
p2037
I0
sVMemberCount
p2038
I0
sVOwnerUin
p2039
I0
sVMemberList
p2040
g43
sVAlias
p2041
g45
sVPYQuanPin
p2042
Vlidingwang
p2043
sVSignature
p2044
g45
sVRemarkPYInitial
p2045
g45
sVContactFlag
p2046
I3
sVUin
p2047
I0
sVNickName
p2048
V\u674e\u4e01\u65fa
p2049
sVAppAccountFlag
p2050
I0
sVVerifyFlag
p2051
I0
sVRemarkPYQuanPin
p2052
g45
sVHeadImgUrl
p2053
V/cgi-bin/mmwebwx-bin/webwxgeticon?seq=657944629&username=@fd130bbcf9124acd68fd4787f3a582cb6186915e17ef74d9ce6b0508286e4f63&skey=@crypt_7a97a81e_5cd31d7995feba3757e6dc9bbe7af259
p2054
sVKeyWord
p2055
g45
sVProvince
p2056
V\u6cb3\u5317
p2057
sVPYInitial
p2058
VLDW
p2059
sVRemarkName
p2060
g45
sVIsOwner
p2061
I0
sVSex
p2062
I1
sVStarFriend
p2063
I0
sVHideInputBarFlag
p2064
I0
sVChatRoomId
p2065
I0
sVEncryChatRoomId
p2066
g45
sVAttrStatus
p2067
I4133
sVStatues
p2068
I0
stp2069
Rp2070
I1
bag27
(g31
g32
(dp2071
VUserName
p2072
V@8c59491d9c70f2f4168acbc03afb696ca40c71262e7da1d344d1fc095d451c61
p2073
sVCity
p2074
V\u4fdd\u5b9a
p2075
sVSnsFlag
p2076
I17
sVDisplayName
p2077
g45
sVUniFriend
p2078
I0
sVMemberCount
p2079
I0
sVOwnerUin
p2080
I0
sVMemberList
p2081
g43
sVAlias
p2082
g45
sVPYQuanPin
p2083
Vrachel
p2084
sVSignature
p2085
g45
sVRemarkPYInitial
p2086
VZSC
p2087
sVContactFlag
p2088
I3
sVUin
p2089
I0
sVNickName
p2090
Vrachel
p2091
sVAppAccountFlag
p2092
I0
sVVerifyFlag
p2093
I0
sVRemarkPYQuanPin
p2094
Vzhaoshichao
p2095
sVHeadImgUrl
p2096
V/cgi-bin/mmwebwx-bin/webwxgeticon?seq=657968929&username=@8c59491d9c70f2f4168acbc03afb696ca40c71262e7da1d344d1fc095d451c61&skey=@crypt_7a97a81e_5cd31d7995feba3757e6dc9bbe7af259
p2097
sVKeyWord
p2098
g45
sVProvince
p2099
V\u6cb3\u5317
p2100
sVPYInitial
p2101
VRACHEL
p2102
sVRemarkName
p2103
V\u8d75\u4e16\u8d85
p2104
sVIsOwner
p2105
I0
sVSex
p2106
I2
sVStarFriend
p2107
I0
sVHideInputBarFlag
p2108
I0
sVChatRoomId
p2109
I0
sVEncryChatRoomId
p2110
g45
sVAttrStatus
p2111
I102437
sVStatues
p2112
I0
stp2113
Rp2114
I1
bag27
(g31
g32
(dp2115
VUserName
p2116
V@dd77cabe51c21d24b7c5edffd7b370dc9311efdb7e0e84337aec1797b866318f
p2117
sVCity
p2118
V\u4fdd\u5b9a
p2119
sVSnsFlag
p2120
I1
sVDisplayName
p2121
g45
sVUniFriend
p2122
I0
sVMemberCount
p2123
I0
sVOwnerUin
p2124
I0
sVMemberList
p2125
g43
sVAlias
p2126
g45
sVPYQuanPin
p2127
Vxiangshoushenghuo
p2128
sVSignature
p2129
V\u73cd\u60dc\u773c\u524d\u62e5\u6709\u7684\u5e78\u798f\u624d\u662f\u5feb\u4e50\u3002
p2130
sVRemarkPYInitial
p2131
VSS
p2132
sVContactFlag
p2133
I65537
sVUin
p2134
I0
sVNickName
p2135
V\u4eab\u53d7\u751f\u6d3b
p2136
sVAppAccountFlag
p2137
I0
sVVerifyFlag
p2138
I0
sVRemarkPYQuanPin
p2139
Vsanshen
p2140
sVHeadImgUrl
p2141
V/cgi-bin/mmwebwx-bin/webwxgeticon?seq=657969177&username=@dd77cabe51c21d24b7c5edffd7b370dc9311efdb7e0e84337aec1797b866318f&skey=@crypt_7a97a81e_5cd31d7995feba3757e6dc9bbe7af259
p2142
sVKeyWord
p2143
g45
sVProvince
p2144
V\u6cb3\u5317
p2145
sVPYInitial
p2146
VXSSH
p2147
sVRemarkName
p2148
V\u4e09\u5a76
p2149
sVIsOwner
p2150
I0
sVSex
p2151
I2
sVStarFriend
p2152
I0
sVHideInputBarFlag
p2153
I0
sVChatRoomId
p2154
I0
sVEncryChatRoomId
p2155
g45
sVAttrStatus
p2156
I4197
sVStatues
p2157
I0
stp2158
Rp2159
I1
bag27
(g31
g32
(dp2160
VUserName
p2161
V@eb382458f20cb4d7f61f51c5d0761f67f8d6af66854d92647726a44330379d0f
p2162
sVCity
p2163
V\u4fdd\u5b9a
p2164
sVSnsFlag
p2165
I17
sVDisplayName
p2166
g45
sVUniFriend
p2167
I0
sVMemberCount
p2168
I0
sVOwnerUin
p2169
I0
sVMemberList
p2170
g43
sVAlias
p2171
g45
sVPYQuanPin
p2172
Vbacktothefuture
p2173
sVSignature
p2174
V<span class="emoji emoji1f41b"></span>
p2175
sVRemarkPYInitial
p2176
VZY
p2177
sVContactFlag
p2178
I3
sVUin
p2179
I0
sVNickName
p2180
Vback to the future
p2181
sVAppAccountFlag
p2182
I0
sVVerifyFlag
p2183
I0
sVRemarkPYQuanPin
p2184
Vzhaoyang
p2185
sVHeadImgUrl
p2186
V/cgi-bin/mmwebwx-bin/webwxgeticon?seq=657970126&username=@eb382458f20cb4d7f61f51c5d0761f67f8d6af66854d92647726a44330379d0f&skey=@crypt_7a97a81e_5cd31d7995feba3757e6dc9bbe7af259
p2187
sVKeyWord
p2188
g45
sVProvince
p2189
V\u6cb3\u5317
p2190
sVPYInitial
p2191
VBACKTOTHEFUTURE
p2192
sVRemarkName
p2193
V\u8d75\u9633
p2194
sVIsOwner
p2195
I0
sVSex
p2196
I1
sVStarFriend
p2197
I0
sVHideInputBarFlag
p2198
I0
sVChatRoomId
p2199
I0
sVEncryChatRoomId
p2200
g45
sVAttrStatus
p2201
I104549
sVStatues
p2202
I0
stp2203
Rp2204
I1
bag27
(g31
g32
(dp2205
VUserName
p2206
V@ed6975d6a08f1981ce9aeef0acc564842a015416820ac41c0cb99cb24bb6e5eb
p2207
sVCity
p2208
V\u4fdd\u5b9a
p2209
sVSnsFlag
p2210
I1
sVDisplayName
p2211
g45
sVUniFriend
p2212
I0
sVMemberCount
p2213
I0
sVOwnerUin
p2214
I0
sVMemberList
p2215
g43
sVAlias
p2216
g45
sVPYQuanPin
p2217
Vfagebuzegai
p2218
sVSignature
p2219
V\u62fe\u8d77\u4ea6\u662f\u653e\u4e0b\uff0c\u653e\u4e0b\u4ea6\u662f\u62fe\u8d77\uff01
p2220
sVRemarkPYInitial
p2221
VWWJ
p2222
sVContactFlag
p2223
I3
sVUin
p2224
I0
sVNickName
p2225
V\u53d1\u54e5\u4e0d\u5219\u76d6
p2226
sVAppAccountFlag
p2227
I0
sVVerifyFlag
p2228
I0
sVRemarkPYQuanPin
p2229
Vweiweijing
p2230
sVHeadImgUrl
p2231
V/cgi-bin/mmwebwx-bin/webwxgeticon?seq=629730338&username=@ed6975d6a08f1981ce9aeef0acc564842a015416820ac41c0cb99cb24bb6e5eb&skey=@crypt_7a97a81e_5cd31d7995feba3757e6dc9bbe7af259
p2232
sVKeyWord
p2233
g45
sVProvince
p2234
V\u6cb3\u5317
p2235
sVPYInitial
p2236
VFGBZG
p2237
sVRemarkName
p2238
V\u4e3a\u5473\u7cbe
p2239
sVIsOwner
p2240
I0
sVSex
p2241
I1
sVStarFriend
p2242
I0
sVHideInputBarFlag
p2243
I0
sVChatRoomId
p2244
I0
sVEncryChatRoomId
p2245
g45
sVAttrStatus
p2246
I4197
sVStatues
p2247
I0
stp2248
Rp2249
I1
bag27
(g31
g32
(dp2250
VUserName
p2251
V@284505366eb19c633e428be55bd48061e6003bbdb9c3b9462d5e9bcd4817aaf0
p2252
sVCity
p2253
V\u4fdd\u5b9a
p2254
sVSnsFlag
p2255
I17
sVDisplayName
p2256
g45
sVUniFriend
p2257
I0
sVMemberCount
p2258
I0
sVOwnerUin
p2259
I0
sVMemberList
p2260
g43
sVAlias
p2261
g45
sVPYQuanPin
p2262
Vdouhao
p2263
sVSignature
p2264
g45
sVRemarkPYInitial
p2265
VFF
p2266
sVContactFlag
p2267
I3
sVUin
p2268
I0
sVNickName
p2269
V\u9017\u53f7
p2270
sVAppAccountFlag
p2271
I0
sVVerifyFlag
p2272
I0
sVRemarkPYQuanPin
p2273
Vfanfan
p2274
sVHeadImgUrl
p2275
V/cgi-bin/mmwebwx-bin/webwxgeticon?seq=657950461&username=@284505366eb19c633e428be55bd48061e6003bbdb9c3b9462d5e9bcd4817aaf0&skey=@crypt_7a97a81e_5cd31d7995feba3757e6dc9bbe7af259
p2276
sVKeyWord
p2277
g45
sVProvince
p2278
V\u6cb3\u5317
p2279
sVPYInitial
p2280
VDH
p2281
sVRemarkName
p2282
V\u5e06\u5e06
p2283
sVIsOwner
p2284
I0
sVSex
p2285
I1
sVStarFriend
p2286
I0
sVHideInputBarFlag
p2287
I0
sVChatRoomId
p2288
I0
sVEncryChatRoomId
p2289
g45
sVAttrStatus
p2290
I4197
sVStatues
p2291
I0
stp2292
Rp2293
I1
bag27
(g31
g32
(dp2294
VUserName
p2295
V@f30a4ea8e9ddc82b17de1826002ca26b48fb088dbb8722bd94e555f90b0b549f
p2296
sVCity
p2297
V\u4fdd\u5b9a
p2298
sVSnsFlag
p2299
I1
sVDisplayName
p2300
g45
sVUniFriend
p2301
I0
sVMemberCount
p2302
I0
sVOwnerUin
p2303
I0
sVMemberList
p2304
g43
sVAlias
p2305
g45
sVPYQuanPin
p2306
Vaitexiaoxi
p2307
sVSignature
p2308
V\u4e13\u6ce8\u662f\u4e00\u79cd\u529b\u91cf
p2309
sVRemarkPYInitial
p2310
VSWC
p2311
sVContactFlag
p2312
I3
sVUin
p2313
I0
sVNickName
p2314
V\u827e\u7279\u5c0f\u66e6
p2315
sVAppAccountFlag
p2316
I0
sVVerifyFlag
p2317
I0
sVRemarkPYQuanPin
p2318
Vsunwenchao
p2319
sVHeadImgUrl
p2320
V/cgi-bin/mmwebwx-bin/webwxgeticon?seq=657971862&username=@f30a4ea8e9ddc82b17de1826002ca26b48fb088dbb8722bd94e555f90b0b549f&skey=@crypt_7a97a81e_5cd31d7995feba3757e6dc9bbe7af259
p2321
sVKeyWord
p2322
g45
sVProvince
p2323
V\u6cb3\u5317
p2324
sVPYInitial
p2325
VATXX
p2326
sVRemarkName
p2327
V\u5b59\u6587\u8d85
p2328
sVIsOwner
p2329
I0
sVSex
p2330
I2
sVStarFriend
p2331
I0
sVHideInputBarFlag
p2332
I0
sVChatRoomId
p2333
I0
sVEncryChatRoomId
p2334
g45
sVAttrStatus
p2335
L2147717245L
sVStatues
p2336
I0
stp2337
Rp2338
I1
bag27
(g31
g32
(dp2339
VUserName
p2340
V@48402a329cd1f83b401394fe82d5890812fb2f521932d8eac9faae231e167f6f
p2341
sVCity
p2342
V\u79e6\u7687\u5c9b
p2343
sVSnsFlag
p2344
I17
sVDisplayName
p2345
g45
sVUniFriend
p2346
I0
sVMemberCount
p2347
I0
sVOwnerUin
p2348
I0
sVMemberList
p2349
g43
sVAlias
p2350
g45
sVPYQuanPin
p2351
Vnull
p2352
sVSignature
p2353
g45
sVRemarkPYInitial
p2354
g45
sVContactFlag
p2355
I3
sVUin
p2356
I0
sVNickName
p2357
Vnull
p2358
sVAppAccountFlag
p2359
I0
sVVerifyFlag
p2360
I0
sVRemarkPYQuanPin
p2361
g45
sVHeadImgUrl
p2362
V/cgi-bin/mmwebwx-bin/webwxgeticon?seq=657952697&username=@48402a329cd1f83b401394fe82d5890812fb2f521932d8eac9faae231e167f6f&skey=@crypt_7a97a81e_5cd31d7995feba3757e6dc9bbe7af259
p2363
sVKeyWord
p2364
g45
sVProvince
p2365
V\u6cb3\u5317
p2366
sVPYInitial
p2367
VNULL
p2368
sVRemarkName
p2369
g45
sVIsOwner
p2370
I0
sVSex
p2371
I2
sVStarFriend
p2372
I0
sVHideInputBarFlag
p2373
I0
sVChatRoomId
p2374
I0
sVEncryChatRoomId
p2375
g45
sVAttrStatus
p2376
I4133
sVStatues
p2377
I0
stp2378
Rp2379
I1
bag27
(g31
g32
(dp2380
VUserName
p2381
V@410dc65be66fe46cc4dbda6b92f22ce518375939584386e1303fbbbd463745a9
p2382
sVCity
p2383
g45
sVSnsFlag
p2384
I17
sVDisplayName
p2385
g45
sVUniFriend
p2386
I0
sVMemberCount
p2387
I0
sVOwnerUin
p2388
I0
sVMemberList
p2389
g43
sVAlias
p2390
g45
sVPYQuanPin
p2391
Vgaizixin
p2392
sVSignature
p2393
V\u4e00\u4e2a\u4eba\uff0c\u4e00\u573a\u68a6\uff0c\u6b64\u5fc3\u4e0d\u4e8c\u000a\u4e24\u4e2a\u4eba\uff0c\u4e00\u53f0\u620f\uff0c\u6b64\u751f\u552f\u4e00
p2394
sVRemarkPYInitial
p2395
VLYW
p2396
sVContactFlag
p2397
I3
sVUin
p2398
I0
sVNickName
p2399
V\u82a5\u5b50\u5fc3
p2400
sVAppAccountFlag
p2401
I0
sVVerifyFlag
p2402
I0
sVRemarkPYQuanPin
p2403
Vliyanwen
p2404
sVHeadImgUrl
p2405
V/cgi-bin/mmwebwx-bin/webwxgeticon?seq=657947884&username=@410dc65be66fe46cc4dbda6b92f22ce518375939584386e1303fbbbd463745a9&skey=@crypt_7a97a81e_5cd31d7995feba3757e6dc9bbe7af259
p2406
sVKeyWord
p2407
g45
sVProvince
p2408
g45
sVPYInitial
p2409
VGZX
p2410
sVRemarkName
p2411
V\u674e\u8273\u6587
p2412
sVIsOwner
p2413
I0
sVSex
p2414
I2
sVStarFriend
p2415
I0
sVHideInputBarFlag
p2416
I0
sVChatRoomId
p2417
I0
sVEncryChatRoomId
p2418
g45
sVAttrStatus
p2419
I135205
sVStatues
p2420
I0
stp2421
Rp2422
I1
bag27
(g31
g32
(dp2423
VUserName
p2424
V@94ff18c134967c03bf4f0f904bb1d2f5322f8827673c6fe225e424f595a41e49
p2425
sVCity
p2426
g45
sVSnsFlag
p2427
I49
sVDisplayName
p2428
g45
sVUniFriend
p2429
I0
sVMemberCount
p2430
I0
sVOwnerUin
p2431
I0
sVMemberList
p2432
g43
sVAlias
p2433
g45
sVPYQuanPin
p2434
VSamleespanclassemojiemojiaespan
p2435
sVSignature
p2436
V#\u7ed9\u4f60\u6700\u592f\u7684\u978b\u5b50#
p2437
sVRemarkPYInitial
p2438
g45
sVContactFlag
p2439
I65539
sVUin
p2440
I0
sVNickName
p2441
V\u300cSamlee\u300d
p2442
sVAppAccountFlag
p2443
I0
sVVerifyFlag
p2444
I0
sVRemarkPYQuanPin
p2445
g45
sVHeadImgUrl
p2446
V/cgi-bin/mmwebwx-bin/webwxgeticon?seq=657958424&username=@94ff18c134967c03bf4f0f904bb1d2f5322f8827673c6fe225e424f595a41e49&skey=@crypt_7a97a81e_5cd31d7995feba3757e6dc9bbe7af259
p2447
sVKeyWord
p2448
g45
sVProvince
p2449
VYau Tsim Mong
p2450
sVPYInitial
p2451
VSAMLEESPANCLASSEMOJIEMOJIAESPAN
p2452
sVRemarkName
p2453
g45
sVIsOwner
p2454
I0
sVSex
p2455
I1
sVStarFriend
p2456
I0
sVHideInputBarFlag
p2457
I0
sVChatRoomId
p2458
I0
sVEncryChatRoomId
p2459
g45
sVAttrStatus
p2460
I72229
sVStatues
p2461
I0
stp2462
Rp2463
I1
bag27
(g31
g32
(dp2464
VUserName
p2465
V@28e174b430ca8344bc1335c8c882cf3ade885b7c4998eed844a52a723940e960
p2466
sVCity
p2467
V\u4fdd\u5b9a
p2468
sVSnsFlag
p2469
I17
sVDisplayName
p2470
g45
sVUniFriend
p2471
I0
sVMemberCount
p2472
I0
sVOwnerUin
p2473
I0
sVMemberList
p2474
g43
sVAlias
p2475
g45
sVPYQuanPin
p2476
Vshiguangjinghao
p2477
sVSignature
p2478
V\u4f60\u82e5\u5b89\u597d\uff0c\u4fbf\u662f\u6674\u5929
p2479
sVRemarkPYInitial
p2480
VXQ
p2481
sVContactFlag
p2482
I3
sVUin
p2483
I0
sVNickName
p2484
V\u65f6\u5149\u9759\u597d
p2485
sVAppAccountFlag
p2486
I0
sVVerifyFlag
p2487
I0
sVRemarkPYQuanPin
p2488
Vxiaqing
p2489
sVHeadImgUrl
p2490
V/cgi-bin/mmwebwx-bin/webwxgeticon?seq=657976133&username=@28e174b430ca8344bc1335c8c882cf3ade885b7c4998eed844a52a723940e960&skey=@crypt_7a97a81e_5cd31d7995feba3757e6dc9bbe7af259
p2491
sVKeyWord
p2492
g45
sVProvince
p2493
V\u6cb3\u5317
p2494
sVPYInitial
p2495
VSGJH
p2496
sVRemarkName
p2497
V\u590f\u9752
p2498
sVIsOwner
p2499
I0
sVSex
p2500
I2
sVStarFriend
p2501
I0
sVHideInputBarFlag
p2502
I0
sVChatRoomId
p2503
I0
sVEncryChatRoomId
p2504
g45
sVAttrStatus
p2505
I36901
sVStatues
p2506
I0
stp2507
Rp2508
I1
bag27
(g31
g32
(dp2509
VUserName
p2510
V@481dd938a01235498cf12338d49264ed5e9e1d00578697b48df21aa143a1d51f
p2511
sVCity
p2512
V\u79e6\u7687\u5c9b
p2513
sVSnsFlag
p2514
I17
sVDisplayName
p2515
g45
sVUniFriend
p2516
I0
sVMemberCount
p2517
I0
sVOwnerUin
p2518
I0
sVMemberList
p2519
g43
sVAlias
p2520
g45
sVPYQuanPin
p2521
Vrenchoujiuyaoduodoushuspanclassemojiemoji1f612span
p2522
sVSignature
p2523
g45
sVRemarkPYInitial
p2524
VGZJ
p2525
sVContactFlag
p2526
I3
sVUin
p2527
I0
sVNickName
p2528
V\u4eba\u4e11\u5c31\u8981\u591a\u8bfb\u4e66\U0001f612
p2529
sVAppAccountFlag
p2530
I0
sVVerifyFlag
p2531
I0
sVRemarkPYQuanPin
p2532
Vguozejian
p2533
sVHeadImgUrl
p2534
V/cgi-bin/mmwebwx-bin/webwxgeticon?seq=657941278&username=@481dd938a01235498cf12338d49264ed5e9e1d00578697b48df21aa143a1d51f&skey=@crypt_7a97a81e_5cd31d7995feba3757e6dc9bbe7af259
p2535
sVKeyWord
p2536
g45
sVProvince
p2537
V\u6cb3\u5317
p2538
sVPYInitial
p2539
VRCJYDDSSPANCLASSEMOJIEMOJI1F612SPAN
p2540
sVRemarkName
p2541
V\u90ed\u6cfd\u5065\u3002
p2542
sVIsOwner
p2543
I0
sVSex
p2544
I1
sVStarFriend
p2545
I0
sVHideInputBarFlag
p2546
I0
sVChatRoomId
p2547
I0
sVEncryChatRoomId
p2548
g45
sVAttrStatus
p2549
I102589
sVStatues
p2550
I0
stp2551
Rp2552
I1
bag27
(g31
g32
(dp2553
VUserName
p2554
V@e4a702a9acbfba7798239fccc909d22ae2a47b387e64dede624d32d09ff858b3
p2555
sVCity
p2556
V\u4fdd\u5b9a
p2557
sVSnsFlag
p2558
I17
sVDisplayName
p2559
g45
sVUniFriend
p2560
I0
sVMemberCount
p2561
I0
sVOwnerUin
p2562
I0
sVMemberList
p2563
g43
sVAlias
p2564
g45
sVPYQuanPin
p2565
Vzhishishenaiyimabaolan
p2566
sVSignature
p2567
VI'll be there forever\uff01
p2568
sVRemarkPYInitial
p2569
VZXL
p2570
sVContactFlag
p2571
I3
sVUin
p2572
I0
sVNickName
p2573
V\u53ea\u662f\u6df1\u7231\u4e00\u62b9\u5b9d\u84dd
p2574
sVAppAccountFlag
p2575
I0
sVVerifyFlag
p2576
I0
sVRemarkPYQuanPin
p2577
Vzhaoxiuli
p2578
sVHeadImgUrl
p2579
V/cgi-bin/mmwebwx-bin/webwxgeticon?seq=657979730&username=@e4a702a9acbfba7798239fccc909d22ae2a47b387e64dede624d32d09ff858b3&skey=@crypt_7a97a81e_5cd31d7995feba3757e6dc9bbe7af259
p2580
sVKeyWord
p2581
g45
sVProvince
p2582
V\u6cb3\u5317
p2583
sVPYInitial
p2584
VZSSAYMBL
p2585
sVRemarkName
p2586
V\u8d75\u79c0\u4e3d
p2587
sVIsOwner
p2588
I0
sVSex
p2589
I2
sVStarFriend
p2590
I0
sVHideInputBarFlag
p2591
I0
sVChatRoomId
p2592
I0
sVEncryChatRoomId
p2593
g45
sVAttrStatus
p2594
I4296829
sVStatues
p2595
I0
stp2596
Rp2597
I1
bag27
(g31
g32
(dp2598
VUserName
p2599
V@d31061ee45b0a36fb445f6cf7f2786d02ca9d61df5c374b28252c42281074590
p2600
sVCity
p2601
V\u4fdd\u5b9a
p2602
sVSnsFlag
p2603
I17
sVDisplayName
p2604
g45
sVUniFriend
p2605
I0
sVMemberCount
p2606
I0
sVOwnerUin
p2607
I0
sVMemberList
p2608
g43
sVAlias
p2609
g45
sVPYQuanPin
p2610
Vlifeicc
p2611
sVSignature
p2612
V\u4e16\u4e8b\u4e00\u573a\u5927\u68a6 \u4eba\u751f\u51e0\u5ea6\u65b0\u51c9  
p2613
sVRemarkPYInitial
p2614
VLF
p2615
sVContactFlag
p2616
I3
sVUin
p2617
I0
sVNickName
p2618
V\u674e\u98decc
p2619
sVAppAccountFlag
p2620
I0
sVVerifyFlag
p2621
I0
sVRemarkPYQuanPin
p2622
Vlifei
p2623
sVHeadImgUrl
p2624
V/cgi-bin/mmwebwx-bin/webwxgeticon?seq=657980176&username=@d31061ee45b0a36fb445f6cf7f2786d02ca9d61df5c374b28252c42281074590&skey=@crypt_7a97a81e_5cd31d7995feba3757e6dc9bbe7af259
p2625
sVKeyWord
p2626
g45
sVProvince
p2627
V\u6cb3\u5317
p2628
sVPYInitial
p2629
VLFCC
p2630
sVRemarkName
p2631
V\u674e\u98de
p2632
sVIsOwner
p2633
I0
sVSex
p2634
I1
sVStarFriend
p2635
I0
sVHideInputBarFlag
p2636
I0
sVChatRoomId
p2637
I0
sVEncryChatRoomId
p2638
g45
sVAttrStatus
p2639
I69733
sVStatues
p2640
I0
stp2641
Rp2642
I1
bag27
(g31
g32
(dp2643
VUserName
p2644
V@941a96707d857fabc8c25696663af2f6452c6fd9134ca2eb1d9e5c045a49f958
p2645
sVCity
p2646
V\u4fdd\u5b9a
p2647
sVSnsFlag
p2648
I17
sVDisplayName
p2649
g45
sVUniFriend
p2650
I0
sVMemberCount
p2651
I0
sVOwnerUin
p2652
I0
sVMemberList
p2653
g43
sVAlias
p2654
g45
sVPYQuanPin
p2655
Vzidiezhilian
p2656
sVSignature
p2657
g45
sVRemarkPYInitial
p2658
VMMJ
p2659
sVContactFlag
p2660
I65537
sVUin
p2661
I0
sVNickName
p2662
V\u7d2b\u8776\u4e4b\u7e9e
p2663
sVAppAccountFlag
p2664
I0
sVVerifyFlag
p2665
I0
sVRemarkPYQuanPin
p2666
Vmiaomiaojie
p2667
sVHeadImgUrl
p2668
V/cgi-bin/mmwebwx-bin/webwxgeticon?seq=657980289&username=@941a96707d857fabc8c25696663af2f6452c6fd9134ca2eb1d9e5c045a49f958&skey=@crypt_7a97a81e_5cd31d7995feba3757e6dc9bbe7af259
p2669
sVKeyWord
p2670
g45
sVProvince
p2671
V\u6cb3\u5317
p2672
sVPYInitial
p2673
VZDZL
p2674
sVRemarkName
p2675
V\u82d7\u82d7\u59d0
p2676
sVIsOwner
p2677
I0
sVSex
p2678
I2
sVStarFriend
p2679
I0
sVHideInputBarFlag
p2680
I0
sVChatRoomId
p2681
I0
sVEncryChatRoomId
p2682
g45
sVAttrStatus
p2683
I4133
sVStatues
p2684
I0
stp2685
Rp2686
I1
bag27
(g31
g32
(dp2687
VUserName
p2688
V@3585b3de44089eb203725c6a5b0c1f65854ffe9ccda63829286859dd8269265e
p2689
sVCity
p2690
V\u6d77\u6dc0
p2691
sVSnsFlag
p2692
I17
sVDisplayName
p2693
g45
sVUniFriend
p2694
I0
sVMemberCount
p2695
I0
sVOwnerUin
p2696
I0
sVMemberList
p2697
g43
sVAlias
p2698
g45
sVPYQuanPin
p2699
VLynn
p2700
sVSignature
p2701
V\u543e\u751f\u4e5f\u6709\u6daf\uff0c\u800c\u77e5\u4e5f\u65e0\u6daf
p2702
sVRemarkPYInitial
p2703
VLYY
p2704
sVContactFlag
p2705
I3
sVUin
p2706
I0
sVNickName
p2707
VLynn
p2708
sVAppAccountFlag
p2709
I0
sVVerifyFlag
p2710
I0
sVRemarkPYQuanPin
p2711
Vlongyuanyuan
p2712
sVHeadImgUrl
p2713
V/cgi-bin/mmwebwx-bin/webwxgeticon?seq=657981180&username=@3585b3de44089eb203725c6a5b0c1f65854ffe9ccda63829286859dd8269265e&skey=@crypt_7a97a81e_5cd31d7995feba3757e6dc9bbe7af259
p2714
sVKeyWord
p2715
g45
sVProvince
p2716
V\u5317\u4eac
p2717
sVPYInitial
p2718
VLYNN
p2719
sVRemarkName
p2720
V\u9f99\u5a9b\u5a9b
p2721
sVIsOwner
p2722
I0
sVSex
p2723
I2
sVStarFriend
p2724
I0
sVHideInputBarFlag
p2725
I0
sVChatRoomId
p2726
I0
sVEncryChatRoomId
p2727
g45
sVAttrStatus
p2728
I71717
sVStatues
p2729
I0
stp2730
Rp2731
I1
bag27
(g31
g32
(dp2732
VUserName
p2733
V@cc6abe1f3474fd5aa1bc64c1d19de12c955ea30cac6e22d2a6c6d3ba7ca67bcd
p2734
sVCity
p2735
V\u897f\u5b89
p2736
sVSnsFlag
p2737
I17
sVDisplayName
p2738
g45
sVUniFriend
p2739
I0
sVMemberCount
p2740
I0
sVOwnerUin
p2741
I0
sVMemberList
p2742
g43
sVAlias
p2743
g45
sVPYQuanPin
p2744
VLenny
p2745
sVSignature
p2746
g45
sVRemarkPYInitial
p2747
VSZL
p2748
sVContactFlag
p2749
I3
sVUin
p2750
I0
sVNickName
p2751
VLenny
p2752
sVAppAccountFlag
p2753
I0
sVVerifyFlag
p2754
I0
sVRemarkPYQuanPin
p2755
Vshenzhili
p2756
sVHeadImgUrl
p2757
V/cgi-bin/mmwebwx-bin/webwxgeticon?seq=640883936&username=@cc6abe1f3474fd5aa1bc64c1d19de12c955ea30cac6e22d2a6c6d3ba7ca67bcd&skey=@crypt_7a97a81e_5cd31d7995feba3757e6dc9bbe7af259
p2758
sVKeyWord
p2759
g45
sVProvince
p2760
V\u9655\u897f
p2761
sVPYInitial
p2762
VLENNY
p2763
sVRemarkName
p2764
V\u6c88\u667a\u529b
p2765
sVIsOwner
p2766
I0
sVSex
p2767
I1
sVStarFriend
p2768
I0
sVHideInputBarFlag
p2769
I0
sVChatRoomId
p2770
I0
sVEncryChatRoomId
p2771
g45
sVAttrStatus
p2772
I37851173
sVStatues
p2773
I0
stp2774
Rp2775
I1
bag27
(g31
g32
(dp2776
VUserName
p2777
V@b5470de562d16c7a6b40d440688daeb2
p2778
sVCity
p2779
V\u4fdd\u5b9a
p2780
sVSnsFlag
p2781
I17
sVDisplayName
p2782
g45
sVUniFriend
p2783
I0
sVMemberCount
p2784
I0
sVOwnerUin
p2785
I0
sVMemberList
p2786
g43
sVAlias
p2787
g45
sVPYQuanPin
p2788
Vningquewulan
p2789
sVSignature
p2790
VShape Of My Heart      \u000a     \u4e24\u60c5\u76f8\u60a6\u7684\u7f8e\u597d \u78b0\u649e\u5fc3\u7075\u7948\u7977
p2791
sVRemarkPYInitial
p2792
VSN
p2793
sVContactFlag
p2794
I1
sVUin
p2795
I0
sVNickName
p2796
V\u5b81\u7f3a\u6bcb\u6ee5
p2797
sVAppAccountFlag
p2798
I0
sVVerifyFlag
p2799
I0
sVRemarkPYQuanPin
p2800
Vsuning
p2801
sVHeadImgUrl
p2802
V/cgi-bin/mmwebwx-bin/webwxgeticon?seq=657984980&username=@b5470de562d16c7a6b40d440688daeb2&skey=@crypt_7a97a81e_5cd31d7995feba3757e6dc9bbe7af259
p2803
sVKeyWord
p2804
Vsn1
p2805
sVProvince
p2806
V\u6cb3\u5317
p2807
sVPYInitial
p2808
VNQWL
p2809
sVRemarkName
p2810
V\u82cf\u5b81
p2811
sVIsOwner
p2812
I0
sVSex
p2813
I1
sVStarFriend
p2814
I0
sVHideInputBarFlag
p2815
I0
sVChatRoomId
p2816
I0
sVEncryChatRoomId
p2817
g45
sVAttrStatus
p2818
I36967
sVStatues
p2819
I0
stp2820
Rp2821
I1
bag27
(g31
g32
(dp2822
VUserName
p2823
V@0ec41f30297d7404ddc2890b9bf3ca9ab6d42cdb70e5ce93e164a91923cf6cee
p2824
sVCity
p2825
V\u4fdd\u5b9a
p2826
sVSnsFlag
p2827
I49
sVDisplayName
p2828
g45
sVUniFriend
p2829
I0
sVMemberCount
p2830
I0
sVOwnerUin
p2831
I0
sVMemberList
p2832
g43
sVAlias
p2833
g45
sVPYQuanPin
p2834
Vsuiyini
p2835
sVSignature
p2836
g45
sVRemarkPYInitial
p2837
VZW
p2838
sVContactFlag
p2839
I3
sVUin
p2840
I0
sVNickName
p2841
V\u968f\u610f\u4f60
p2842
sVAppAccountFlag
p2843
I0
sVVerifyFlag
p2844
I0
sVRemarkPYQuanPin
p2845
Vzhengwei
p2846
sVHeadImgUrl
p2847
V/cgi-bin/mmwebwx-bin/webwxgeticon?seq=657985467&username=@0ec41f30297d7404ddc2890b9bf3ca9ab6d42cdb70e5ce93e164a91923cf6cee&skey=@crypt_7a97a81e_5cd31d7995feba3757e6dc9bbe7af259
p2848
sVKeyWord
p2849
g45
sVProvince
p2850
V\u6cb3\u5317
p2851
sVPYInitial
p2852
VSYN
p2853
sVRemarkName
p2854
V\u90d1\u4f1f
p2855
sVIsOwner
p2856
I0
sVSex
p2857
I1
sVStarFriend
p2858
I0
sVHideInputBarFlag
p2859
I0
sVChatRoomId
p2860
I0
sVEncryChatRoomId
p2861
g45
sVAttrStatus
p2862
I235709
sVStatues
p2863
I0
stp2864
Rp2865
I1
bag27
(g31
g32
(dp2866
VUserName
p2867
V@19e4be6ac32cdffde89b0e360f5dc336301f3297ea4f0873512c32f66c1d7493
p2868
sVCity
p2869
V\u4fdd\u5b9a
p2870
sVSnsFlag
p2871
I17
sVDisplayName
p2872
g45
sVUniFriend
p2873
I0
sVMemberCount
p2874
I0
sVOwnerUin
p2875
I0
sVMemberList
p2876
g43
sVAlias
p2877
g45
sVPYQuanPin
p2878
Vling
p2879
sVSignature
p2880
g45
sVRemarkPYInitial
p2881
VLLT
p2882
sVContactFlag
p2883
I3
sVUin
p2884
I0
sVNickName
p2885
V\u3068\u9234\u3065\u3002
p2886
sVAppAccountFlag
p2887
I0
sVVerifyFlag
p2888
I0
sVRemarkPYQuanPin
p2889
Vlinleitao
p2890
sVHeadImgUrl
p2891
V/cgi-bin/mmwebwx-bin/webwxgeticon?seq=626700660&username=@19e4be6ac32cdffde89b0e360f5dc336301f3297ea4f0873512c32f66c1d7493&skey=@crypt_7a97a81e_5cd31d7995feba3757e6dc9bbe7af259
p2892
sVKeyWord
p2893
g45
sVProvince
p2894
V\u6cb3\u5317
p2895
sVPYInitial
p2896
VL
p2897
sVRemarkName
p2898
V\u853a\u96f7\u6d9b
p2899
sVIsOwner
p2900
I0
sVSex
p2901
I1
sVStarFriend
p2902
I0
sVHideInputBarFlag
p2903
I0
sVChatRoomId
p2904
I0
sVEncryChatRoomId
p2905
g45
sVAttrStatus
p2906
I16912485
sVStatues
p2907
I0
stp2908
Rp2909
I1
bag27
(g31
g32
(dp2910
VUserName
p2911
V@3ae18d6b20f12ea08a2839a2bf19e8afebb8a96fff108722602d2fbc63a967ea
p2912
sVCity
p2913
V\u4fdd\u5b9a
p2914
sVSnsFlag
p2915
I17
sVDisplayName
p2916
g45
sVUniFriend
p2917
I0
sVMemberCount
p2918
I0
sVOwnerUin
p2919
I0
sVMemberList
p2920
g43
sVAlias
p2921
g45
sVPYQuanPin
p2922
Vaobutiankong
p2923
sVSignature
p2924
g45
sVRemarkPYInitial
p2925
VHHM
p2926
sVContactFlag
p2927
I1
sVUin
p2928
I0
sVNickName
p2929
V\u50b2\u6b65\u5929\u7a7a
p2930
sVAppAccountFlag
p2931
I0
sVVerifyFlag
p2932
I0
sVRemarkPYQuanPin
p2933
Vhaohuiming
p2934
sVHeadImgUrl
p2935
V/cgi-bin/mmwebwx-bin/webwxgeticon?seq=645460300&username=@3ae18d6b20f12ea08a2839a2bf19e8afebb8a96fff108722602d2fbc63a967ea&skey=@crypt_7a97a81e_5cd31d7995feba3757e6dc9bbe7af259
p2936
sVKeyWord
p2937
g45
sVProvince
p2938
V\u6cb3\u5317
p2939
sVPYInitial
p2940
VABTK
p2941
sVRemarkName
p2942
V\u90dd\u6167\u660e
p2943
sVIsOwner
p2944
I0
sVSex
p2945
I1
sVStarFriend
p2946
I0
sVHideInputBarFlag
p2947
I0
sVChatRoomId
p2948
I0
sVEncryChatRoomId
p2949
g45
sVAttrStatus
p2950
I16913341
sVStatues
p2951
I0
stp2952
Rp2953
I1
bag27
(g31
g32
(dp2954
VUserName
p2955
V@9abdd6bc287c431b6cbba98985120468d3fcf1b47f9958070066899e9fef152f
p2956
sVCity
p2957
V\u5f20\u5bb6\u53e3
p2958
sVSnsFlag
p2959
I17
sVDisplayName
p2960
g45
sVUniFriend
p2961
I0
sVMemberCount
p2962
I0
sVOwnerUin
p2963
I0
sVMemberList
p2964
g43
sVAlias
p2965
g45
sVPYQuanPin
p2966
VPrince
p2967
sVSignature
p2968
V\u5929\u771f\u65e0\u90aa
p2969
sVRemarkPYInitial
p2970
VZJQ
p2971
sVContactFlag
p2972
I3
sVUin
p2973
I0
sVNickName
p2974
VPrince
p2975
sVAppAccountFlag
p2976
I0
sVVerifyFlag
p2977
I0
sVRemarkPYQuanPin
p2978
Vzhaojiangqiao
p2979
sVHeadImgUrl
p2980
V/cgi-bin/mmwebwx-bin/webwxgeticon?seq=657947931&username=@9abdd6bc287c431b6cbba98985120468d3fcf1b47f9958070066899e9fef152f&skey=@crypt_7a97a81e_5cd31d7995feba3757e6dc9bbe7af259
p2981
sVKeyWord
p2982
g45
sVProvince
p2983
V\u6cb3\u5317
p2984
sVPYInitial
p2985
VPRINCE
p2986
sVRemarkName
p2987
V\u8d75\u6c5f\u6865
p2988
sVIsOwner
p2989
I0
sVSex
p2990
I1
sVStarFriend
p2991
I0
sVHideInputBarFlag
p2992
I0
sVChatRoomId
p2993
I0
sVEncryChatRoomId
p2994
g45
sVAttrStatus
p2995
I103461
sVStatues
p2996
I0
stp2997
Rp2998
I1
bag27
(g31
g32
(dp2999
VUserName
p3000
V@3ceb52c56803fddc6740b4e571523b3aefcde5656e3411ec23f9a1da746d662b
p3001
sVCity
p3002
V\u4fdd\u5b9a
p3003
sVSnsFlag
p3004
I17
sVDisplayName
p3005
g45
sVUniFriend
p3006
I0
sVMemberCount
p3007
I0
sVOwnerUin
p3008
I0
sVMemberList
p3009
g43
sVAlias
p3010
g45
sVPYQuanPin
p3011
Vlonglijuan
p3012
sVSignature
p3013
V\u4e0d\u5fd8\u521d\u5fc3
p3014
sVRemarkPYInitial
p3015
VLLJ
p3016
sVContactFlag
p3017
I3
sVUin
p3018
I0
sVNickName
p3019
V\u9f99\u4e3d\u5a1f
p3020
sVAppAccountFlag
p3021
I0
sVVerifyFlag
p3022
I0
sVRemarkPYQuanPin
p3023
Vlonglijuan
p3024
sVHeadImgUrl
p3025
V/cgi-bin/mmwebwx-bin/webwxgeticon?seq=657989556&username=@3ceb52c56803fddc6740b4e571523b3aefcde5656e3411ec23f9a1da746d662b&skey=@crypt_7a97a81e_5cd31d7995feba3757e6dc9bbe7af259
p3026
sVKeyWord
p3027
g45
sVProvince
p3028
V\u6cb3\u5317
p3029
sVPYInitial
p3030
VLLJ
p3031
sVRemarkName
p3032
V\u9f99\u4e3d\u5a1f
p3033
sVIsOwner
p3034
I0
sVSex
p3035
I2
sVStarFriend
p3036
I0
sVHideInputBarFlag
p3037
I0
sVChatRoomId
p3038
I0
sVEncryChatRoomId
p3039
g45
sVAttrStatus
p3040
I102501
sVStatues
p3041
I0
stp3042
Rp3043
I1
bag27
(g31
g32
(dp3044
VUserName
p3045
V@f2f5ff8a11ecc49b87d2b3dad95569eb3b33d01b5d5f920b955cac7c1b91a457
p3046
sVCity
p3047
g45
sVSnsFlag
p3048
I17
sVDisplayName
p3049
g45
sVUniFriend
p3050
I0
sVMemberCount
p3051
I0
sVOwnerUin
p3052
I0
sVMemberList
p3053
g43
sVAlias
p3054
g45
sVPYQuanPin
p3055
Vyaotongqingnian
p3056
sVSignature
p3057
V\u9690\u7ea6\u96f7\u9e23\uff0c\u9634\u973e\u5929\u7a7a
p3058
sVRemarkPYInitial
p3059
VWJW
p3060
sVContactFlag
p3061
I3
sVUin
p3062
I0
sVNickName
p3063
V\u8170\u75db\u9752\u5e74
p3064
sVAppAccountFlag
p3065
I0
sVVerifyFlag
p3066
I0
sVRemarkPYQuanPin
p3067
Vwangjunwei
p3068
sVHeadImgUrl
p3069
V/cgi-bin/mmwebwx-bin/webwxgeticon?seq=657964657&username=@f2f5ff8a11ecc49b87d2b3dad95569eb3b33d01b5d5f920b955cac7c1b91a457&skey=@crypt_7a97a81e_5cd31d7995feba3757e6dc9bbe7af259
p3070
sVKeyWord
p3071
g45
sVProvince
p3072
g45
sVPYInitial
p3073
VYTQN
p3074
sVRemarkName
p3075
V\u738b\u4fca\u4f1f
p3076
sVIsOwner
p3077
I0
sVSex
p3078
I1
sVStarFriend
p3079
I0
sVHideInputBarFlag
p3080
I0
sVChatRoomId
p3081
I0
sVEncryChatRoomId
p3082
g45
sVAttrStatus
p3083
I319
sVStatues
p3084
I0
stp3085
Rp3086
I1
bag27
(g31
g32
(dp3087
VUserName
p3088
V@0cb05d25c18856f71d2e308658491e46a9b8c9e0402772ca092d35dff63b984f
p3089
sVCity
p3090
V\u79e6\u7687\u5c9b
p3091
sVSnsFlag
p3092
I17
sVDisplayName
p3093
g45
sVUniFriend
p3094
I0
sVMemberCount
p3095
I0
sVOwnerUin
p3096
I0
sVMemberList
p3097
g43
sVAlias
p3098
g45
sVPYQuanPin
p3099
Vxingzi
p3100
sVSignature
p3101
V\u5f88\u591a\u4e8b\u5728\u591a\u5e74\u524d\u65e9\u4ee5\u6ce8\u5b9a
p3102
sVRemarkPYInitial
p3103
VLZR
p3104
sVContactFlag
p3105
I3
sVUin
p3106
I0
sVNickName
p3107
V\u661f\u5b50
p3108
sVAppAccountFlag
p3109
I0
sVVerifyFlag
p3110
I0
sVRemarkPYQuanPin
p3111
Vliuzerui
p3112
sVHeadImgUrl
p3113
V/cgi-bin/mmwebwx-bin/webwxgeticon?seq=657951113&username=@0cb05d25c18856f71d2e308658491e46a9b8c9e0402772ca092d35dff63b984f&skey=@crypt_7a97a81e_5cd31d7995feba3757e6dc9bbe7af259
p3114
sVKeyWord
p3115
g45
sVProvince
p3116
V\u6cb3\u5317
p3117
sVPYInitial
p3118
VXZ
p3119
sVRemarkName
p3120
V\u5218\u6cfd\u745e
p3121
sVIsOwner
p3122
I0
sVSex
p3123
I2
sVStarFriend
p3124
I0
sVHideInputBarFlag
p3125
I0
sVChatRoomId
p3126
I0
sVEncryChatRoomId
p3127
g45
sVAttrStatus
p3128
I102973
sVStatues
p3129
I0
stp3130
Rp3131
I1
bag27
(g31
g32
(dp3132
VUserName
p3133
V@21de60a75821e18d268b4d5d9ab13c4ad75d8bf2e39b41d44d1686bee9860465
p3134
sVCity
p3135
V\u660c\u5e73
p3136
sVSnsFlag
p3137
I17
sVDisplayName
p3138
g45
sVUniFriend
p3139
I0
sVMemberCount
p3140
I0
sVOwnerUin
p3141
I0
sVMemberList
p3142
g43
sVAlias
p3143
g45
sVPYQuanPin
p3144
Vmayi????
p3145
sVSignature
p3146
V\u6b7b\u8981\u9762\u5b50\u6d3b\u53d7\u7f6a
p3147
sVRemarkPYInitial
p3148
VHW
p3149
sVContactFlag
p3150
I3
sVUin
p3151
I0
sVNickName
p3152
V\u8682\u8681\u0e08\u0e38\u0e4a\u0e1a
p3153
sVAppAccountFlag
p3154
I0
sVVerifyFlag
p3155
I0
sVRemarkPYQuanPin
p3156
Vhanwei
p3157
sVHeadImgUrl
p3158
V/cgi-bin/mmwebwx-bin/webwxgeticon?seq=638454885&username=@21de60a75821e18d268b4d5d9ab13c4ad75d8bf2e39b41d44d1686bee9860465&skey=@crypt_7a97a81e_5cd31d7995feba3757e6dc9bbe7af259
p3159
sVKeyWord
p3160
g45
sVProvince
p3161
V\u5317\u4eac
p3162
sVPYInitial
p3163
VMY????
p3164
sVRemarkName
p3165
V\u97e9\u4f1f
p3166
sVIsOwner
p3167
I0
sVSex
p3168
I1
sVStarFriend
p3169
I0
sVHideInputBarFlag
p3170
I0
sVChatRoomId
p3171
I0
sVEncryChatRoomId
p3172
g45
sVAttrStatus
p3173
I98341
sVStatues
p3174
I0
stp3175
Rp3176
I1
bag27
(g31
g32
(dp3177
VUserName
p3178
V@3dc16f3f4490ef7da34fbea0740f5f524c0890835ae55d1008420ccfd7748b04
p3179
sVCity
p3180
V\u77f3\u5bb6\u5e84
p3181
sVSnsFlag
p3182
I17
sVDisplayName
p3183
g45
sVUniFriend
p3184
I0
sVMemberCount
p3185
I0
sVOwnerUin
p3186
I0
sVMemberList
p3187
g43
sVAlias
p3188
g45
sVPYQuanPin
p3189
g45
sVSignature
p3190
g45
sVRemarkPYInitial
p3191
VAKG
p3192
sVContactFlag
p3193
I3
sVUin
p3194
I0
sVNickName
p3195
V\uff0c\uff0c\uff0c
p3196
sVAppAccountFlag
p3197
I0
sVVerifyFlag
p3198
I0
sVRemarkPYQuanPin
p3199
Vankaigang
p3200
sVHeadImgUrl
p3201
V/cgi-bin/mmwebwx-bin/webwxgeticon?seq=637505950&username=@3dc16f3f4490ef7da34fbea0740f5f524c0890835ae55d1008420ccfd7748b04&skey=@crypt_7a97a81e_5cd31d7995feba3757e6dc9bbe7af259
p3202
sVKeyWord
p3203
g45
sVProvince
p3204
V\u6cb3\u5317
p3205
sVPYInitial
p3206
g45
sVRemarkName
p3207
V\u5b89\u51ef\u521a
p3208
sVIsOwner
p3209
I0
sVSex
p3210
I1
sVStarFriend
p3211
I0
sVHideInputBarFlag
p3212
I0
sVChatRoomId
p3213
I0
sVEncryChatRoomId
p3214
g45
sVAttrStatus
p3215
I69733
sVStatues
p3216
I0
stp3217
Rp3218
I1
bag27
(g31
g32
(dp3219
VUserName
p3220
V@d6e667bbf0399ec4db06ef2442e38f897c796a469337b76f8fcc0b88120b062b
p3221
sVCity
p3222
V\u4fdd\u5b9a
p3223
sVSnsFlag
p3224
I17
sVDisplayName
p3225
g45
sVUniFriend
p3226
I0
sVMemberCount
p3227
I0
sVOwnerUin
p3228
I0
sVMemberList
p3229
g43
sVAlias
p3230
g45
sVPYQuanPin
p3231
Vbaijingyu
p3232
sVSignature
p3233
g45
sVRemarkPYInitial
p3234
VBJY
p3235
sVContactFlag
p3236
I1
sVUin
p3237
I0
sVNickName
p3238
V\u767d\u9756\u5b87
p3239
sVAppAccountFlag
p3240
I0
sVVerifyFlag
p3241
I0
sVRemarkPYQuanPin
p3242
Vbaijingyu
p3243
sVHeadImgUrl
p3244
V/cgi-bin/mmwebwx-bin/webwxgeticon?seq=648561853&username=@d6e667bbf0399ec4db06ef2442e38f897c796a469337b76f8fcc0b88120b062b&skey=@crypt_7a97a81e_5cd31d7995feba3757e6dc9bbe7af259
p3245
sVKeyWord
p3246
g45
sVProvince
p3247
V\u6cb3\u5317
p3248
sVPYInitial
p3249
VBJY
p3250
sVRemarkName
p3251
V\u767d\u9759\u5b87
p3252
sVIsOwner
p3253
I0
sVSex
p3254
I2
sVStarFriend
p3255
I0
sVHideInputBarFlag
p3256
I0
sVChatRoomId
p3257
I0
sVEncryChatRoomId
p3258
g45
sVAttrStatus
p3259
I4901
sVStatues
p3260
I0
stp3261
Rp3262
I1
bag27
(g31
g32
(dp3263
VUserName
p3264
V@e40c688208634f7965d3131a2e22587ec108bebaa267c36e01977967b178e343
p3265
sVCity
p3266
g45
sVSnsFlag
p3267
I17
sVDisplayName
p3268
g45
sVUniFriend
p3269
I0
sVMemberCount
p3270
I0
sVOwnerUin
p3271
I0
sVMemberList
p3272
g43
sVAlias
p3273
g45
sVPYQuanPin
p3274
Vmoonshinespanclassemojiemoji2747span
p3275
sVSignature
p3276
g45
sVRemarkPYInitial
p3277
VSWR
p3278
sVContactFlag
p3279
I3
sVUin
p3280
I0
sVNickName
p3281
Vmoonshine\u2747
p3282
sVAppAccountFlag
p3283
I0
sVVerifyFlag
p3284
I0
sVRemarkPYQuanPin
p3285
Vsunwanru
p3286
sVHeadImgUrl
p3287
V/cgi-bin/mmwebwx-bin/webwxgeticon?seq=657992780&username=@e40c688208634f7965d3131a2e22587ec108bebaa267c36e01977967b178e343&skey=@crypt_7a97a81e_5cd31d7995feba3757e6dc9bbe7af259
p3288
sVKeyWord
p3289
g45
sVProvince
p3290
g45
sVPYInitial
p3291
VMOONSHINESPANCLASSEMOJIEMOJI2747SPAN
p3292
sVRemarkName
p3293
V\u5b59\u5a49\u5982
p3294
sVIsOwner
p3295
I0
sVSex
p3296
I2
sVStarFriend
p3297
I0
sVHideInputBarFlag
p3298
I0
sVChatRoomId
p3299
I0
sVEncryChatRoomId
p3300
g45
sVAttrStatus
p3301
I98341
sVStatues
p3302
I0
stp3303
Rp3304
I1
bag27
(g31
g32
(dp3305
VUserName
p3306
V@649a5d26418e895b31abf7d1d32f6109f39bfe6490efc4d747403c7b36a8eced
p3307
sVCity
p3308
V\u79e6\u7687\u5c9b
p3309
sVSnsFlag
p3310
I17
sVDisplayName
p3311
g45
sVUniFriend
p3312
I0
sVMemberCount
p3313
I0
sVOwnerUin
p3314
I0
sVMemberList
p3315
g43
sVAlias
p3316
g45
sVPYQuanPin
p3317
Vchenfeng
p3318
sVSignature
p3319
g45
sVRemarkPYInitial
p3320
VCF
p3321
sVContactFlag
p3322
I3
sVUin
p3323
I0
sVNickName
p3324
V\u9648\u4e30
p3325
sVAppAccountFlag
p3326
I0
sVVerifyFlag
p3327
I0
sVRemarkPYQuanPin
p3328
Vchenfeng
p3329
sVHeadImgUrl
p3330
V/cgi-bin/mmwebwx-bin/webwxgeticon?seq=657993088&username=@649a5d26418e895b31abf7d1d32f6109f39bfe6490efc4d747403c7b36a8eced&skey=@crypt_7a97a81e_5cd31d7995feba3757e6dc9bbe7af259
p3331
sVKeyWord
p3332
g45
sVProvince
p3333
V\u6cb3\u5317
p3334
sVPYInitial
p3335
VCF
p3336
sVRemarkName
p3337
V\u9648\u4e30\u3002
p3338
sVIsOwner
p3339
I0
sVSex
p3340
I1
sVStarFriend
p3341
I0
sVHideInputBarFlag
p3342
I0
sVChatRoomId
p3343
I0
sVEncryChatRoomId
p3344
g45
sVAttrStatus
p3345
I102757
sVStatues
p3346
I0
stp3347
Rp3348
I1
bag27
(g31
g32
(dp3349
VUserName
p3350
V@1345070eac1fef9c8a333d60c5a8f353e6a93ca918d6176a123969c6df950187
p3351
sVCity
p3352
g45
sVSnsFlag
p3353
I17
sVDisplayName
p3354
g45
sVUniFriend
p3355
I0
sVMemberCount
p3356
I0
sVOwnerUin
p3357
I0
sVMemberList
p3358
g43
sVAlias
p3359
g45
sVPYQuanPin
p3360
Vchanganleng
p3361
sVSignature
p3362
V\u82e6\u6d77\u7ffb\u8d77\u7231\u6068\u3002
p3363
sVRemarkPYInitial
p3364
g45
sVContactFlag
p3365
I3
sVUin
p3366
I0
sVNickName
p3367
V\u957f\u5b89\u51b7
p3368
sVAppAccountFlag
p3369
I0
sVVerifyFlag
p3370
I0
sVRemarkPYQuanPin
p3371
g45
sVHeadImgUrl
p3372
V/cgi-bin/mmwebwx-bin/webwxgeticon?seq=657994121&username=@1345070eac1fef9c8a333d60c5a8f353e6a93ca918d6176a123969c6df950187&skey=@crypt_7a97a81e_5cd31d7995feba3757e6dc9bbe7af259
p3373
sVKeyWord
p3374
g45
sVProvince
p3375
VVancouver
p3376
sVPYInitial
p3377
VCAL
p3378
sVRemarkName
p3379
g45
sVIsOwner
p3380
I0
sVSex
p3381
I1
sVStarFriend
p3382
I0
sVHideInputBarFlag
p3383
I0
sVChatRoomId
p3384
I0
sVEncryChatRoomId
p3385
g45
sVAttrStatus
p3386
I102437
sVStatues
p3387
I0
stp3388
Rp3389
I1
bag27
(g31
g32
(dp3390
VUserName
p3391
V@caa6d06a4fe4f6620839041b6fe21282290662ea46075b4a2585ea92cb459412
p3392
sVCity
p3393
V\u4fdd\u5b9a
p3394
sVSnsFlag
p3395
I17
sVDisplayName
p3396
g45
sVUniFriend
p3397
I0
sVMemberCount
p3398
I0
sVOwnerUin
p3399
I0
sVMemberList
p3400
g43
sVAlias
p3401
g45
sVPYQuanPin
p3402
Vchongchudepingxian
p3403
sVSignature
p3404
V\u52aa\u529b\u6210\u4e3a\u81ea\u5df1\u60f3\u8981\u6210\u4e3a\u7684\u4eba\uff0c\u52aa\u529b\u8fc7\u81ea\u5df1\u60f3\u8981\u7684\u751f\u6d3b\u3002
p3405
sVRemarkPYInitial
p3406
VLXY
p3407
sVContactFlag
p3408
I1
sVUin
p3409
I0
sVNickName
p3410
V\u51b2\u51fa\u5730\u5e73\u7ebf
p3411
sVAppAccountFlag
p3412
I0
sVVerifyFlag
p3413
I0
sVRemarkPYQuanPin
p3414
Vliuxinye
p3415
sVHeadImgUrl
p3416
V/cgi-bin/mmwebwx-bin/webwxgeticon?seq=657976001&username=@caa6d06a4fe4f6620839041b6fe21282290662ea46075b4a2585ea92cb459412&skey=@crypt_7a97a81e_5cd31d7995feba3757e6dc9bbe7af259
p3417
sVKeyWord
p3418
g45
sVProvince
p3419
V\u6cb3\u5317
p3420
sVPYInitial
p3421
VCCDPX
p3422
sVRemarkName
p3423
V\u5218\u946b\u70e8\u3002
p3424
sVIsOwner
p3425
I0
sVSex
p3426
I1
sVStarFriend
p3427
I0
sVHideInputBarFlag
p3428
I0
sVChatRoomId
p3429
I0
sVEncryChatRoomId
p3430
g45
sVAttrStatus
p3431
I4167
sVStatues
p3432
I0
stp3433
Rp3434
I1
bag27
(g31
g32
(dp3435
VUserName
p3436
V@1a7c6c9dca44d2db6ec5e332a4085e06
p3437
sVCity
p3438
g45
sVSnsFlag
p3439
I17
sVDisplayName
p3440
g45
sVUniFriend
p3441
I0
sVMemberCount
p3442
I0
sVOwnerUin
p3443
I0
sVMemberList
p3444
g43
sVAlias
p3445
g45
sVPYQuanPin
p3446
Vspanclassemojiemoji2747spanCrystal
p3447
sVSignature
p3448
g45
sVRemarkPYInitial
p3449
VWJ
p3450
sVContactFlag
p3451
I3
sVUin
p3452
I0
sVNickName
p3453
V\u2747Crystal
p3454
sVAppAccountFlag
p3455
I0
sVVerifyFlag
p3456
I0
sVRemarkPYQuanPin
p3457
Vwangjing
p3458
sVHeadImgUrl
p3459
V/cgi-bin/mmwebwx-bin/webwxgeticon?seq=657993408&username=@1a7c6c9dca44d2db6ec5e332a4085e06&skey=@crypt_7a97a81e_5cd31d7995feba3757e6dc9bbe7af259
p3460
sVKeyWord
p3461
Vjin
p3462
sVProvince
p3463
VZurich
p3464
sVPYInitial
p3465
VSPANCLASSEMOJIEMOJI2747SPANCRYSTAL
p3466
sVRemarkName
p3467
V\u738b\u6676
p3468
sVIsOwner
p3469
I0
sVSex
p3470
I2
sVStarFriend
p3471
I0
sVHideInputBarFlag
p3472
I0
sVChatRoomId
p3473
I0
sVEncryChatRoomId
p3474
g45
sVAttrStatus
p3475
I248871
sVStatues
p3476
I0
stp3477
Rp3478
I1
bag27
(g31
g32
(dp3479
VUserName
p3480
V@698a7a0a8e319e732a85635faff3ee015b9f2de2ed841b67c9bd7f6cf9f9361e
p3481
sVCity
p3482
V\u77f3\u5bb6\u5e84
p3483
sVSnsFlag
p3484
I17
sVDisplayName
p3485
g45
sVUniFriend
p3486
I0
sVMemberCount
p3487
I0
sVOwnerUin
p3488
I0
sVMemberList
p3489
g43
sVAlias
p3490
g45
sVPYQuanPin
p3491
Vxingxing
p3492
sVSignature
p3493
g45
sVRemarkPYInitial
p3494
VZJN
p3495
sVContactFlag
p3496
I3
sVUin
p3497
I0
sVNickName
p3498
V\u661f\u661f
p3499
sVAppAccountFlag
p3500
I0
sVVerifyFlag
p3501
I0
sVRemarkPYQuanPin
p3502
Vzhoujuanning
p3503
sVHeadImgUrl
p3504
V/cgi-bin/mmwebwx-bin/webwxgeticon?seq=657987319&username=@698a7a0a8e319e732a85635faff3ee015b9f2de2ed841b67c9bd7f6cf9f9361e&skey=@crypt_7a97a81e_5cd31d7995feba3757e6dc9bbe7af259
p3505
sVKeyWord
p3506
g45
sVProvince
p3507
V\u6cb3\u5317
p3508
sVPYInitial
p3509
VXX
p3510
sVRemarkName
p3511
V\u5468\u96bd\u5b81
p3512
sVIsOwner
p3513
I0
sVSex
p3514
I0
sVStarFriend
p3515
I0
sVHideInputBarFlag
p3516
I0
sVChatRoomId
p3517
I0
sVEncryChatRoomId
p3518
g45
sVAttrStatus
p3519
I33554469
sVStatues
p3520
I0
stp3521
Rp3522
I1
bag27
(g31
g32
(dp3523
VUserName
p3524
V@afcbeef4b595365356d31e4788136de7cb7702dba810b597985b862f9b69deca
p3525
sVCity
p3526
g45
sVSnsFlag
p3527
I49
sVDisplayName
p3528
g45
sVUniFriend
p3529
I0
sVMemberCount
p3530
I0
sVOwnerUin
p3531
I0
sVMemberList
p3532
g43
sVAlias
p3533
g45
sVPYQuanPin
p3534
VI
p3535
sVSignature
p3536
g45
sVRemarkPYInitial
p3537
VGHQ
p3538
sVContactFlag
p3539
I3
sVUin
p3540
I0
sVNickName
p3541
V:-I
p3542
sVAppAccountFlag
p3543
I0
sVVerifyFlag
p3544
I0
sVRemarkPYQuanPin
p3545
Vgaohangqi
p3546
sVHeadImgUrl
p3547
V/cgi-bin/mmwebwx-bin/webwxgeticon?seq=657941770&username=@afcbeef4b595365356d31e4788136de7cb7702dba810b597985b862f9b69deca&skey=@crypt_7a97a81e_5cd31d7995feba3757e6dc9bbe7af259
p3548
sVKeyWord
p3549
g45
sVProvince
p3550
g45
sVPYInitial
p3551
g3535
sVRemarkName
p3552
V\u9ad8\u822a\u742a
p3553
sVIsOwner
p3554
I0
sVSex
p3555
I2
sVStarFriend
p3556
I0
sVHideInputBarFlag
p3557
I0
sVChatRoomId
p3558
I0
sVEncryChatRoomId
p3559
g45
sVAttrStatus
p3560
I231357
sVStatues
p3561
I0
stp3562
Rp3563
I1
bag27
(g31
g32
(dp3564
VUserName
p3565
V@8780b8f0290a0cea7cf2baffbfb9d0fb0fdf6ad95f853eb36805c75fbb6c65fe
p3566
sVCity
p3567
V\u4fdd\u5b9a
p3568
sVSnsFlag
p3569
I49
sVDisplayName
p3570
g45
sVUniFriend
p3571
I0
sVMemberCount
p3572
I0
sVOwnerUin
p3573
I0
sVMemberList
p3574
g43
sVAlias
p3575
g45
sVPYQuanPin
p3576
Vtongtongspanclassemojiemoji1f467span?
p3577
sVSignature
p3578
V\u000a\u000a\u000a\u000a\u000a\u000a\u000a\u000a\u000a\u000a\u000a\u000a\u000a\u000a\u000a\u000a\u000a\u000a\u000a\u000a\u000a\u000a\u000a\u000a\u000a\u000a\u000a\u000a\u000a\u000a\u000a\u000a\u8bd7 \u8fdc\u65b9 \u548c\u4f60
p3579
sVRemarkPYInitial
p3580
VJXT
p3581
sVContactFlag
p3582
I3
sVUin
p3583
I0
sVNickName
p3584
V\u5f64\u5f64\U0001f467\U0001f3fb
p3585
sVAppAccountFlag
p3586
I0
sVVerifyFlag
p3587
I0
sVRemarkPYQuanPin
p3588
Vjixutong
p3589
sVHeadImgUrl
p3590
V/cgi-bin/mmwebwx-bin/webwxgeticon?seq=657980855&username=@8780b8f0290a0cea7cf2baffbfb9d0fb0fdf6ad95f853eb36805c75fbb6c65fe&skey=@crypt_7a97a81e_5cd31d7995feba3757e6dc9bbe7af259
p3591
sVKeyWord
p3592
g45
sVProvince
p3593
V\u6cb3\u5317
p3594
sVPYInitial
p3595
VTTSPANCLASSEMOJIEMOJI1F467SPAN?
p3596
sVRemarkName
p3597
V\u5180\u65ed\u5f64
p3598
sVIsOwner
p3599
I0
sVSex
p3600
I2
sVStarFriend
p3601
I0
sVHideInputBarFlag
p3602
I0
sVChatRoomId
p3603
I0
sVEncryChatRoomId
p3604
g45
sVAttrStatus
p3605
I103741
sVStatues
p3606
I0
stp3607
Rp3608
I1
bag27
(g31
g32
(dp3609
VUserName
p3610
V@035945b765bda42bc0ce624fcffd6e56
p3611
sVCity
p3612
V\u8861\u6c34
p3613
sVSnsFlag
p3614
I49
sVDisplayName
p3615
g45
sVUniFriend
p3616
I0
sVMemberCount
p3617
I0
sVOwnerUin
p3618
I0
sVMemberList
p3619
g43
sVAlias
p3620
g45
sVPYQuanPin
p3621
VPESCOD
p3622
sVSignature
p3623
g45
sVRemarkPYInitial
p3624
VCZG
p3625
sVContactFlag
p3626
I8195
sVUin
p3627
I0
sVNickName
p3628
VPESCOD
p3629
sVAppAccountFlag
p3630
I0
sVVerifyFlag
p3631
I0
sVRemarkPYQuanPin
p3632
Vchangzhigao
p3633
sVHeadImgUrl
p3634
V/cgi-bin/mmwebwx-bin/webwxgeticon?seq=648560704&username=@035945b765bda42bc0ce624fcffd6e56&skey=@crypt_7a97a81e_5cd31d7995feba3757e6dc9bbe7af259
p3635
sVKeyWord
p3636
Vcha
p3637
sVProvince
p3638
V\u6cb3\u5317
p3639
sVPYInitial
p3640
VPESCOD
p3641
sVRemarkName
p3642
V\u82cc\u5fd7\u9ad8
p3643
sVIsOwner
p3644
I0
sVSex
p3645
I1
sVStarFriend
p3646
I0
sVHideInputBarFlag
p3647
I0
sVChatRoomId
p3648
I0
sVEncryChatRoomId
p3649
g45
sVAttrStatus
p3650
I33677543
sVStatues
p3651
I0
stp3652
Rp3653
I1
bag27
(g31
g32
(dp3654
VUserName
p3655
V@9df94d73610d0573317fa72f25524b0389326f796c307975cc4ad99290f3d0eb
p3656
sVCity
p3657
V\u77f3\u5bb6\u5e84
p3658
sVSnsFlag
p3659
I1
sVDisplayName
p3660
g45
sVUniFriend
p3661
I0
sVMemberCount
p3662
I0
sVOwnerUin
p3663
I0
sVMemberList
p3664
g43
sVAlias
p3665
g45
sVPYQuanPin
p3666
Vfanhuashijin
p3667
sVSignature
p3668
V<span class="emoji emoji1f60a"></span>
p3669
sVRemarkPYInitial
p3670
VGYJ
p3671
sVContactFlag
p3672
I3
sVUin
p3673
I0
sVNickName
p3674
V\u7e41\u82b1\u4f3c\u747e
p3675
sVAppAccountFlag
p3676
I0
sVVerifyFlag
p3677
I0
sVRemarkPYQuanPin
p3678
Vgengyijun
p3679
sVHeadImgUrl
p3680
V/cgi-bin/mmwebwx-bin/webwxgeticon?seq=657995565&username=@9df94d73610d0573317fa72f25524b0389326f796c307975cc4ad99290f3d0eb&skey=@crypt_7a97a81e_5cd31d7995feba3757e6dc9bbe7af259
p3681
sVKeyWord
p3682
g45
sVProvince
p3683
V\u6cb3\u5317
p3684
sVPYInitial
p3685
VFHSJ
p3686
sVRemarkName
p3687
V\u803f\u5fc6\u541b
p3688
sVIsOwner
p3689
I0
sVSex
p3690
I2
sVStarFriend
p3691
I0
sVHideInputBarFlag
p3692
I0
sVChatRoomId
p3693
I0
sVEncryChatRoomId
p3694
g45
sVAttrStatus
p3695
I4197
sVStatues
p3696
I0
stp3697
Rp3698
I1
bag27
(g31
g32
(dp3699
VUserName
p3700
V@4b99a522bcff91b25784dde58599530e
p3701
sVCity
p3702
V\u671d\u9633
p3703
sVSnsFlag
p3704
I49
sVDisplayName
p3705
g45
sVUniFriend
p3706
I0
sVMemberCount
p3707
I0
sVOwnerUin
p3708
I0
sVMemberList
p3709
g43
sVAlias
p3710
g45
sVPYQuanPin
p3711
Valiasy
p3712
sVSignature
p3713
g45
sVRemarkPYInitial
p3714
VLBW
p3715
sVContactFlag
p3716
I3
sVUin
p3717
I0
sVNickName
p3718
Valiasy
p3719
sVAppAccountFlag
p3720
I0
sVVerifyFlag
p3721
I0
sVRemarkPYQuanPin
p3722
Vliangbowei
p3723
sVHeadImgUrl
p3724
V/cgi-bin/mmwebwx-bin/webwxgeticon?seq=657953895&username=@4b99a522bcff91b25784dde58599530e&skey=@crypt_7a97a81e_5cd31d7995feba3757e6dc9bbe7af259
p3725
sVKeyWord
p3726
Vali
p3727
sVProvince
p3728
V\u5317\u4eac
p3729
sVPYInitial
p3730
VALIASY
p3731
sVRemarkName
p3732
V\u6881\u535a\u5dcd
p3733
sVIsOwner
p3734
I0
sVSex
p3735
I1
sVStarFriend
p3736
I0
sVHideInputBarFlag
p3737
I0
sVChatRoomId
p3738
I0
sVEncryChatRoomId
p3739
g45
sVAttrStatus
p3740
I104551
sVStatues
p3741
I0
stp3742
Rp3743
I1
bag27
(g31
g32
(dp3744
VUserName
p3745
V@e11b0b42ab496d45e038fcb2bd6ff992b5a597640401b094184414231df6a9ea
p3746
sVCity
p3747
V\u77f3\u5bb6\u5e84
p3748
sVSnsFlag
p3749
I17
sVDisplayName
p3750
g45
sVUniFriend
p3751
I0
sVMemberCount
p3752
I0
sVOwnerUin
p3753
I0
sVMemberList
p3754
g43
sVAlias
p3755
g45
sVPYQuanPin
p3756
Vwuxie
p3757
sVSignature
p3758
V\u5982\u679c\u4e8b\u4e0e\u613f\u8fdd\uff0c\u8bf7\u76f8\u4fe1\u8001\u5929\u4e00\u5b9a\u53e6\u6709\u5b89\u6392\u3002
p3759
sVRemarkPYInitial
p3760
VZZF
p3761
sVContactFlag
p3762
I3
sVUin
p3763
I0
sVNickName
p3764
V\u5434\u90aa
p3765
sVAppAccountFlag
p3766
I0
sVVerifyFlag
p3767
I0
sVRemarkPYQuanPin
p3768
Vzhaozhenfei
p3769
sVHeadImgUrl
p3770
V/cgi-bin/mmwebwx-bin/webwxgeticon?seq=657995932&username=@e11b0b42ab496d45e038fcb2bd6ff992b5a597640401b094184414231df6a9ea&skey=@crypt_7a97a81e_5cd31d7995feba3757e6dc9bbe7af259
p3771
sVKeyWord
p3772
g45
sVProvince
p3773
V\u6cb3\u5317
p3774
sVPYInitial
p3775
VWX
p3776
sVRemarkName
p3777
V\u8d75\u632f\u98de
p3778
sVIsOwner
p3779
I0
sVSex
p3780
I1
sVStarFriend
p3781
I0
sVHideInputBarFlag
p3782
I0
sVChatRoomId
p3783
I0
sVEncryChatRoomId
p3784
g45
sVAttrStatus
p3785
I98749
sVStatues
p3786
I0
stp3787
Rp3788
I1
bag27
(g31
g32
(dp3789
VUserName
p3790
V@ebbb464f4e37dcdfa8697b9b8d9da6c01eadc9ce1372cacb78bf00a87c455e0b
p3791
sVCity
p3792
V\u90a2\u53f0
p3793
sVSnsFlag
p3794
I17
sVDisplayName
p3795
g45
sVUniFriend
p3796
I0
sVMemberCount
p3797
I0
sVOwnerUin
p3798
I0
sVMemberList
p3799
g43
sVAlias
p3800
g45
sVPYQuanPin
p3801
Vmiaolegemi
p3802
sVSignature
p3803
V\u767d\u5929\u6240\u6709\u81ea\u5df1\u6c89\u5bc2\uff0c\u665a\u4e0a\uff0c\u5404\u79cd\u81ea\u5df1\u6253\u67b6\u3002
p3804
sVRemarkPYInitial
p3805
VYED
p3806
sVContactFlag
p3807
I3
sVUin
p3808
I0
sVNickName
p3809
V\u55b5\u4e86\u4e2a\u54aa
p3810
sVAppAccountFlag
p3811
I0
sVVerifyFlag
p3812
I0
sVRemarkPYQuanPin
p3813
Vyaoerdan
p3814
sVHeadImgUrl
p3815
V/cgi-bin/mmwebwx-bin/webwxgeticon?seq=657952134&username=@ebbb464f4e37dcdfa8697b9b8d9da6c01eadc9ce1372cacb78bf00a87c455e0b&skey=@crypt_7a97a81e_5cd31d7995feba3757e6dc9bbe7af259
p3816
sVKeyWord
p3817
g45
sVProvince
p3818
V\u6cb3\u5317
p3819
sVPYInitial
p3820
VMLGM
p3821
sVRemarkName
p3822
V\u59da\u4e8c\u86cb
p3823
sVIsOwner
p3824
I0
sVSex
p3825
I1
sVStarFriend
p3826
I0
sVHideInputBarFlag
p3827
I0
sVChatRoomId
p3828
I0
sVEncryChatRoomId
p3829
g45
sVAttrStatus
p3830
I110695
sVStatues
p3831
I0
stp3832
Rp3833
I1
bag27
(g31
g32
(dp3834
VUserName
p3835
V@20e22f572a5796c41bc4b24ede973951fe1bb36742d0dbdedf4695708c5923d7
p3836
sVCity
p3837
g45
sVSnsFlag
p3838
I16
sVDisplayName
p3839
g45
sVUniFriend
p3840
I0
sVMemberCount
p3841
I0
sVOwnerUin
p3842
I0
sVMemberList
p3843
g43
sVAlias
p3844
g45
sVPYQuanPin
p3845
Vceshi
p3846
sVSignature
p3847
g45
sVRemarkPYInitial
p3848
g45
sVContactFlag
p3849
I3
sVUin
p3850
I0
sVNickName
p3851
V\u6d4b\u8bd5
p3852
sVAppAccountFlag
p3853
I0
sVVerifyFlag
p3854
I0
sVRemarkPYQuanPin
p3855
g45
sVHeadImgUrl
p3856
V/cgi-bin/mmwebwx-bin/webwxgeticon?seq=657996337&username=@20e22f572a5796c41bc4b24ede973951fe1bb36742d0dbdedf4695708c5923d7&skey=@crypt_7a97a81e_5cd31d7995feba3757e6dc9bbe7af259
p3857
sVKeyWord
p3858
g45
sVProvince
p3859
g45
sVPYInitial
p3860
VCS
p3861
sVRemarkName
p3862
g45
sVIsOwner
p3863
I0
sVSex
p3864
I0
sVStarFriend
p3865
I0
sVHideInputBarFlag
p3866
I0
sVChatRoomId
p3867
I0
sVEncryChatRoomId
p3868
g45
sVAttrStatus
p3869
I33
sVStatues
p3870
I0
stp3871
Rp3872
I1
bag27
(g31
g32
(dp3873
VUserName
p3874
V@e1cd8b5eaa4d2c0d30957e682d62d26d70991715516ed5bd621aabb4432b2dcf
p3875
sVCity
p3876
g45
sVSnsFlag
p3877
I1
sVDisplayName
p3878
g45
sVUniFriend
p3879
I0
sVMemberCount
p3880
I0
sVOwnerUin
p3881
I0
sVMemberList
p3882
g43
sVAlias
p3883
g45
sVPYQuanPin
p3884
Vjiu
p3885
sVSignature
p3886
V\u5f88\u5e78\u8fd0
p3887
sVRemarkPYInitial
p3888
VZYL
p3889
sVContactFlag
p3890
I3
sVUin
p3891
I0
sVNickName
p3892
V      \u4e5d\u3002
p3893
sVAppAccountFlag
p3894
I0
sVVerifyFlag
p3895
I0
sVRemarkPYQuanPin
p3896
Vzhouyali
p3897
sVHeadImgUrl
p3898
V/cgi-bin/mmwebwx-bin/webwxgeticon?seq=657996339&username=@e1cd8b5eaa4d2c0d30957e682d62d26d70991715516ed5bd621aabb4432b2dcf&skey=@crypt_7a97a81e_5cd31d7995feba3757e6dc9bbe7af259
p3899
sVKeyWord
p3900
g45
sVProvince
p3901
V\u5317\u4eac
p3902
sVPYInitial
p3903
VJ
p3904
sVRemarkName
p3905
V\u5468\u4e9a\u4e3d
p3906
sVIsOwner
p3907
I0
sVSex
p3908
I2
sVStarFriend
p3909
I0
sVHideInputBarFlag
p3910
I0
sVChatRoomId
p3911
I0
sVEncryChatRoomId
p3912
g45
sVAttrStatus
p3913
I102501
sVStatues
p3914
I0
stp3915
Rp3916
I1
bag27
(g31
g32
(dp3917
VUserName
p3918
V@4b166db11d35ef6ac01c269f80ba2ec687c54c8e2dcea374e975186aabf2cb14
p3919
sVCity
p3920
V\u4fdd\u5b9a
p3921
sVSnsFlag
p3922
I17
sVDisplayName
p3923
g45
sVUniFriend
p3924
I0
sVMemberCount
p3925
I0
sVOwnerUin
p3926
I0
sVMemberList
p3927
g43
sVAlias
p3928
g45
sVPYQuanPin
p3929
VZoe
p3930
sVSignature
p3931
V\u6211\u662f\u9542\u7a7a\u7eb1\uff0c\u5168\u662f\u7f3a\u70b9\u7ec4\u6210\u7684\u3002
p3932
sVRemarkPYInitial
p3933
VHY
p3934
sVContactFlag
p3935
I3
sVUin
p3936
I0
sVNickName
p3937
VZoe
p3938
sVAppAccountFlag
p3939
I0
sVVerifyFlag
p3940
I0
sVRemarkPYQuanPin
p3941
Vhongyi
p3942
sVHeadImgUrl
p3943
V/cgi-bin/mmwebwx-bin/webwxgeticon?seq=657996637&username=@4b166db11d35ef6ac01c269f80ba2ec687c54c8e2dcea374e975186aabf2cb14&skey=@crypt_7a97a81e_5cd31d7995feba3757e6dc9bbe7af259
p3944
sVKeyWord
p3945
g45
sVProvince
p3946
V\u6cb3\u5317
p3947
sVPYInitial
p3948
VZOE
p3949
sVRemarkName
p3950
V\u6d2a\u4e49
p3951
sVIsOwner
p3952
I0
sVSex
p3953
I2
sVStarFriend
p3954
I0
sVHideInputBarFlag
p3955
I0
sVChatRoomId
p3956
I0
sVEncryChatRoomId
p3957
g45
sVAttrStatus
p3958
I98597
sVStatues
p3959
I0
stp3960
Rp3961
I1
bag27
(g31
g32
(dp3962
VUserName
p3963
V@05f099a1defac2b13f85cc467047da27
p3964
sVCity
p3965
V\u548c\u5e73
p3966
sVSnsFlag
p3967
I49
sVDisplayName
p3968
g45
sVUniFriend
p3969
I0
sVMemberCount
p3970
I0
sVOwnerUin
p3971
I0
sVMemberList
p3972
g43
sVAlias
p3973
g45
sVPYQuanPin
p3974
Vliuhaixiao
p3975
sVSignature
p3976
V\u6c38\u8fdc\u90fd\u6d3b\u4e0d\u660e\u767d
p3977
sVRemarkPYInitial
p3978
VHXG
p3979
sVContactFlag
p3980
I3
sVUin
p3981
I0
sVNickName
p3982
V\u5218\u6d77\u6f47
p3983
sVAppAccountFlag
p3984
I0
sVVerifyFlag
p3985
I0
sVRemarkPYQuanPin
p3986
Vhaixiaoge
p3987
sVHeadImgUrl
p3988
V/cgi-bin/mmwebwx-bin/webwxgeticon?seq=657996682&username=@05f099a1defac2b13f85cc467047da27&skey=@crypt_7a97a81e_5cd31d7995feba3757e6dc9bbe7af259
p3989
sVKeyWord
p3990
Vyiq
p3991
sVProvince
p3992
V\u5929\u6d25
p3993
sVPYInitial
p3994
VLHX
p3995
sVRemarkName
p3996
V\u6d77\u6f47\u54e5
p3997
sVIsOwner
p3998
I0
sVSex
p3999
I1
sVStarFriend
p4000
I0
sVHideInputBarFlag
p4001
I0
sVChatRoomId
p4002
I0
sVEncryChatRoomId
p4003
g45
sVAttrStatus
p4004
I231615
sVStatues
p4005
I0
stp4006
Rp4007
I1
batp4008
Rp4009
I1
bsS'chatroomList'
p4010
g27
(g28
g29
(lp4011
g27
(citchat.storage.templates
Chatroom
p4012
g32
(dp4013
VUserName
p4014
V@@4940bb5628d7bd5c0c3bb0ad34b227dd41a3ab951002cc3d32ddaab869efdb65
p4015
sVCity
p4016
g45
sVDisplayName
p4017
g45
sVUniFriend
p4018
I0
sS'Self'
p4019
g27
(g31
g32
(dp4020
g34
g24
sg35
g36
sg37
g36
sg38
I0
sg39
I0
sg40
g27
(g28
g29
(lp4021
tp4022
Rp4023
I1
bsg44
g45
sg46
g45
sg47
L2751702521L
sg48
I0
sg49
I0
sg50
g36
sg51
g36
sg52
g45
sg53
g45
sg54
I0
sg55
I0
sg56
I1
sg57
g36
sg58
I0
sg59
I17
sg60
I0
sg61
I0
sg62
g36
sg63
g64
sg65
I0
sg66
g67
sg68
g45
sg69
g70
sg71
I1
sg72
I0
sg73
I0
stp4024
Rp4025
I1
bsVMemberList
p4026
g27
(g28
g29
(lp4027
tp4028
Rp4029
I1
bsVPYQuanPin
p4030
Vxiazhiweizhi
p4031
sVRemarkPYInitial
p4032
g45
sVSex
p4033
I0
sVAppAccountFlag
p4034
I0
sVVerifyFlag
p4035
I0
sVProvince
p4036
g45
sVKeyWord
p4037
g45
sVRemarkName
p4038
g45
sVPYInitial
p4039
VXZWZ
p4040
sVIsOwner
p4041
I0
sVChatRoomId
p4042
I0
sVHideInputBarFlag
p4043
I0
sVEncryChatRoomId
p4044
g45
sVAttrStatus
p4045
I0
sVSnsFlag
p4046
I0
sVMemberCount
p4047
I9
sVOwnerUin
p4048
I0
sVAlias
p4049
g45
sS'IsAdmin'
p4050
NsVSignature
p4051
g45
sVContactFlag
p4052
I3
sVNickName
p4053
V\u590f\u81f3\u672a\u81f3
p4054
sVRemarkPYQuanPin
p4055
g45
sVHeadImgUrl
p4056
V/cgi-bin/mmwebwx-bin/webwxgetheadimg?seq=657995871&username=@@4940bb5628d7bd5c0c3bb0ad34b227dd41a3ab951002cc3d32ddaab869efdb65&skey=@crypt_7a97a81e_5cd31d7995feba3757e6dc9bbe7af259
p4057
sVUin
p4058
I0
sVStarFriend
p4059
I0
sVStatues
p4060
I1
stp4061
Rp4062
I1
bag27
(g4012
g32
(dp4063
VUserName
p4064
V@@05b7a2004f9d8f2e6c1d2b8d02fb0cf000c07fad8fd10956e9084d086c6d49cd
p4065
sVCity
p4066
g45
sVDisplayName
p4067
g45
sVUniFriend
p4068
I0
sg4019
g27
(g31
g32
(dp4069
g34
g24
sg35
g36
sg37
g36
sg38
I0
sg39
I0
sg40
g27
(g28
g29
(lp4070
tp4071
Rp4072
I1
bsg44
g45
sg46
g45
sg47
L2751702521L
sg48
I0
sg49
I0
sg50
g36
sg51
g36
sg52
g45
sg53
g45
sg54
I0
sg55
I0
sg56
I1
sg57
g36
sg58
I0
sg59
I17
sg60
I0
sg61
I0
sg62
g36
sg63
g64
sg65
I0
sg66
g67
sg68
g45
sg69
g70
sg71
I1
sg72
I0
sg73
I0
stp4073
Rp4074
I1
bsVMemberList
p4075
g27
(g28
g29
(lp4076
tp4077
Rp4078
I1
bsVPYQuanPin
p4079
Vxingfuyijiaren
p4080
sVRemarkPYInitial
p4081
g45
sVSex
p4082
I0
sVAppAccountFlag
p4083
I0
sVVerifyFlag
p4084
I0
sVProvince
p4085
g45
sVKeyWord
p4086
g45
sVRemarkName
p4087
g45
sVPYInitial
p4088
VXFYJR
p4089
sVIsOwner
p4090
I0
sVChatRoomId
p4091
I0
sVHideInputBarFlag
p4092
I0
sVEncryChatRoomId
p4093
g45
sVAttrStatus
p4094
I0
sVSnsFlag
p4095
I0
sVMemberCount
p4096
I19
sVOwnerUin
p4097
I0
sVAlias
p4098
g45
sg4050
NsVSignature
p4099
g45
sVContactFlag
p4100
I3
sVNickName
p4101
V\u5e78\u798f\u4e00\u5bb6\u4eba
p4102
sVRemarkPYQuanPin
p4103
g45
sVHeadImgUrl
p4104
V/cgi-bin/mmwebwx-bin/webwxgetheadimg?seq=657964898&username=@@05b7a2004f9d8f2e6c1d2b8d02fb0cf000c07fad8fd10956e9084d086c6d49cd&skey=@crypt_7a97a81e_5cd31d7995feba3757e6dc9bbe7af259
p4105
sVUin
p4106
I0
sVStarFriend
p4107
I0
sVStatues
p4108
I0
stp4109
Rp4110
I1
bag27
(g4012
g32
(dp4111
VUserName
p4112
V@@f67cb26219d9236ff8c33008aadff7ab7e26bac075a9710b2bdd398433e31de6
p4113
sVCity
p4114
g45
sVDisplayName
p4115
g45
sVUniFriend
p4116
I0
sg4019
g27
(g31
g32
(dp4117
g34
g24
sg35
g36
sg37
g36
sg38
I0
sg39
I0
sg40
g27
(g28
g29
(lp4118
tp4119
Rp4120
I1
bsg44
g45
sg46
g45
sg47
L2751702521L
sg48
I0
sg49
I0
sg50
g36
sg51
g36
sg52
g45
sg53
g45
sg54
I0
sg55
I0
sg56
I1
sg57
g36
sg58
I0
sg59
I17
sg60
I0
sg61
I0
sg62
g36
sg63
g64
sg65
I0
sg66
g67
sg68
g45
sg69
g70
sg71
I1
sg72
I0
sg73
I0
stp4121
Rp4122
I1
bsVMemberList
p4123
g27
(g28
g29
(lp4124
tp4125
Rp4126
I1
bsVPYQuanPin
p4127
Vhahahaha
p4128
sVRemarkPYInitial
p4129
g45
sVSex
p4130
I0
sVAppAccountFlag
p4131
I0
sVVerifyFlag
p4132
I0
sVProvince
p4133
g45
sVKeyWord
p4134
g45
sVRemarkName
p4135
g45
sVPYInitial
p4136
VHHHH
p4137
sVIsOwner
p4138
I1
sVChatRoomId
p4139
I0
sVHideInputBarFlag
p4140
I0
sVEncryChatRoomId
p4141
g45
sVAttrStatus
p4142
I0
sVSnsFlag
p4143
I0
sVMemberCount
p4144
I0
sVOwnerUin
p4145
I0
sVAlias
p4146
g45
sg4050
NsVSignature
p4147
g45
sVContactFlag
p4148
I3
sVNickName
p4149
V\u54c8\u54c8\u54c8\u54c8
p4150
sVRemarkPYQuanPin
p4151
g45
sVHeadImgUrl
p4152
V/cgi-bin/mmwebwx-bin/webwxgetheadimg?seq=657946714&username=@@f67cb26219d9236ff8c33008aadff7ab7e26bac075a9710b2bdd398433e31de6&skey=@crypt_7a97a81e_5cd31d7995feba3757e6dc9bbe7af259
p4153
sVUin
p4154
I0
sVStarFriend
p4155
I0
sVStatues
p4156
I1
stp4157
Rp4158
I1
bag27
(g4012
g32
(dp4159
VUserName
p4160
V@@2f70df8d8e3cbd252f0c6b995cdf507188aab59096176dd30233de65e95b39bc
p4161
sVCity
p4162
g45
sVDisplayName
p4163
g45
sVUniFriend
p4164
I0
sg4019
g27
(g31
g32
(dp4165
g34
g24
sg35
g36
sg37
g36
sg38
I0
sg39
I0
sg40
g27
(g28
g29
(lp4166
tp4167
Rp4168
I1
bsg44
g45
sg46
g45
sg47
L2751702521L
sg48
I0
sg49
I0
sg50
g36
sg51
g36
sg52
g45
sg53
g45
sg54
I0
sg55
I0
sg56
I1
sg57
g36
sg58
I0
sg59
I17
sg60
I0
sg61
I0
sg62
g36
sg63
g64
sg65
I0
sg66
g67
sg68
g45
sg69
g70
sg71
I1
sg72
I0
sg73
I0
stp4169
Rp4170
I1
bsVMemberList
p4171
g27
(g28
g29
(lp4172
tp4173
Rp4174
I1
bsVPYQuanPin
p4175
Vbubiandesanban
p4176
sVRemarkPYInitial
p4177
g45
sVSex
p4178
I0
sVAppAccountFlag
p4179
I0
sVVerifyFlag
p4180
I0
sVProvince
p4181
g45
sVKeyWord
p4182
g45
sVRemarkName
p4183
g45
sVPYInitial
p4184
VBBDESB
p4185
sVIsOwner
p4186
I0
sVChatRoomId
p4187
I0
sVHideInputBarFlag
p4188
I0
sVEncryChatRoomId
p4189
g45
sVAttrStatus
p4190
I0
sVSnsFlag
p4191
I0
sVMemberCount
p4192
I0
sVOwnerUin
p4193
I0
sVAlias
p4194
g45
sg4050
NsVSignature
p4195
g45
sVContactFlag
p4196
I3
sVNickName
p4197
V\u4e0d\u53d8de\u4e09\u73ed
p4198
sVRemarkPYQuanPin
p4199
g45
sVHeadImgUrl
p4200
V/cgi-bin/mmwebwx-bin/webwxgetheadimg?seq=657945322&username=@@2f70df8d8e3cbd252f0c6b995cdf507188aab59096176dd30233de65e95b39bc&skey=@crypt_7a97a81e_5cd31d7995feba3757e6dc9bbe7af259
p4201
sVUin
p4202
I0
sVStarFriend
p4203
I0
sVStatues
p4204
I0
stp4205
Rp4206
I1
bag27
(g4012
g32
(dp4207
VUserName
p4208
V@@65220e2d2f34ffdc68cd6a7366857169ff7b4f88161d9680c9b983aaf127f0d1
p4209
sVCity
p4210
g45
sVDisplayName
p4211
g45
sVUniFriend
p4212
I0
sg4019
g27
(g31
g32
(dp4213
g34
g24
sg35
g36
sg37
g36
sg38
I0
sg39
I0
sg40
g27
(g28
g29
(lp4214
tp4215
Rp4216
I1
bsg44
g45
sg46
g45
sg47
L2751702521L
sg48
I0
sg49
I0
sg50
g36
sg51
g36
sg52
g45
sg53
g45
sg54
I0
sg55
I0
sg56
I1
sg57
g36
sg58
I0
sg59
I17
sg60
I0
sg61
I0
sg62
g36
sg63
g64
sg65
I0
sg66
g67
sg68
g45
sg69
g70
sg71
I1
sg72
I0
sg73
I0
stp4217
Rp4218
I1
bsVMemberList
p4219
g27
(g28
g29
(lp4220
tp4221
Rp4222
I1
bsVPYQuanPin
p4223
Vbeixuanzhongdelaoganbudoutuwang
p4224
sVRemarkPYInitial
p4225
g45
sVSex
p4226
I0
sVAppAccountFlag
p4227
I0
sVVerifyFlag
p4228
I0
sVProvince
p4229
g45
sVKeyWord
p4230
g45
sVRemarkName
p4231
g45
sVPYInitial
p4232
VBXZDLGBDTW
p4233
sVIsOwner
p4234
I0
sVChatRoomId
p4235
I0
sVHideInputBarFlag
p4236
I0
sVEncryChatRoomId
p4237
g45
sVAttrStatus
p4238
I0
sVSnsFlag
p4239
I0
sVMemberCount
p4240
I0
sVOwnerUin
p4241
I0
sVAlias
p4242
g45
sg4050
NsVSignature
p4243
g45
sVContactFlag
p4244
I3
sVNickName
p4245
V\u88ab\u9009\u4e2d\u7684\u8001\u5e72\u90e8\u6597\u56fe\u738b
p4246
sVRemarkPYQuanPin
p4247
g45
sVHeadImgUrl
p4248
V/cgi-bin/mmwebwx-bin/webwxgetheadimg?seq=657978116&username=@@65220e2d2f34ffdc68cd6a7366857169ff7b4f88161d9680c9b983aaf127f0d1&skey=@crypt_7a97a81e_5cd31d7995feba3757e6dc9bbe7af259
p4249
sVUin
p4250
I0
sVStarFriend
p4251
I0
sVStatues
p4252
I1
stp4253
Rp4254
I1
batp4255
Rp4256
I1
bsS'nickName'
p4257
g67
sS'mpList'
p4258
g27
(g28
g29
(lp4259
g27
(citchat.storage.templates
MassivePlatform
p4260
g32
(dp4261
VUserName
p4262
V@398a669359d1ad20ec22fb714ce6263f
p4263
sVCity
p4264
V\u671d\u9633
p4265
sVSnsFlag
p4266
I0
sVDisplayName
p4267
g45
sVUniFriend
p4268
I0
sVMemberCount
p4269
I0
sVOwnerUin
p4270
I0
sVMemberList
p4271
g43
sVAlias
p4272
g45
sVPYQuanPin
p4273
Vwanxingren
p4274
sVSignature
p4275
V\u7b2c\u4e00\u624b\u4e07\u5408\u8d44\u8baf\uff0c\u6700\u641e\u7b11\u5185\u5bb9\u63a8\u8350\u3002\u8fd8\u6709\u610f\u60f3\u4e0d\u5230\u7684\u60ca\u559c\uff0c\u7cbe\u5f69\u4e0d\u505c\u6b47\uff0c\u6b22\u4e50\u4e0d\u65ad\u6863\u3002\u5173\u6ce8\u5c0f\u4e07\u5c06\u5e26\u4f60\u8d70\u4e0a\u4eba\u751f\u5dc5\u5cf0\uff01
p4276
sVRemarkPYInitial
p4277
g45
sVContactFlag
p4278
I3
sVUin
p4279
I0
sVNickName
p4280
V\u4e07\u661f\u4eba
p4281
sVAppAccountFlag
p4282
I0
sVVerifyFlag
p4283
I24
sVRemarkPYQuanPin
p4284
g45
sVHeadImgUrl
p4285
V/cgi-bin/mmwebwx-bin/webwxgeticon?seq=634462802&username=@398a669359d1ad20ec22fb714ce6263f&skey=@crypt_7a97a81e_5cd31d7995feba3757e6dc9bbe7af259
p4286
sVKeyWord
p4287
Vgh_
p4288
sVProvince
p4289
V\u5317\u4eac
p4290
sVPYInitial
p4291
VWXR
p4292
sVRemarkName
p4293
g45
sVIsOwner
p4294
I0
sVSex
p4295
I0
sVStarFriend
p4296
I0
sVHideInputBarFlag
p4297
I0
sVChatRoomId
p4298
I0
sVEncryChatRoomId
p4299
g45
sVAttrStatus
p4300
I0
sVStatues
p4301
I0
stp4302
Rp4303
I1
bag27
(g4260
g32
(dp4304
VUserName
p4305
V@6267a89ca07fcbfadad948bca217e6b4
p4306
sVCity
p4307
V\u6df1\u5733
p4308
sVSnsFlag
p4309
I0
sVDisplayName
p4310
g45
sVUniFriend
p4311
I0
sVMemberCount
p4312
I0
sVOwnerUin
p4313
I0
sVMemberList
p4314
g43
sVAlias
p4315
g45
sVPYQuanPin
p4316
Vbeijingchaoshenghuo
p4317
sVSignature
p4318
V\u5343\u5e74\u5e1d\u90fd\uff01\u4e16\u754c\u57ce\u5e02\uff01\u5317\u4eac\uff0c\u600e\u80fd\u4e0d\u7231\u4f60\uff1f\u7231\u5317\u4eac\u8bf7\u5173\u6ce8\u5317\u4eac\u6f6e\u751f\u6d3b\uff0c\u4e86\u89e3\u5317\u4eac\u7684\u4e00\u5207\u4e00\u5207! \u8fd9\u91cc\u6709\u5730\u9053\u7684\u5317\u4eac\u7f8e\u98df\u653b\u7565\u3001\u6e38\u73a9\u653b\u7565\uff0c\u7cbe\u5f69\u7684\u672c\u5730\u7ebf\u4e0b\u6d3b\u52a8\uff0c\u5f53\u7136\u8fd8\u6709\u8ba9\u4eba\u6d41\u53e3\u6c34\u7684\u7c89\u4e1d\u4e13\u4eab\u798f\u5229\uff01\u603b\u4e4b\uff0c\u5173\u6ce8 \u201c\u5317\u4eac\u6f6e\u751f\u6d3b\u201d\uff0c\u4e00\u5b9a\u4f1a\u8ba9\u4f60\u7684\u751f\u6d3b\u66f4\u52a0\u7cbe\u5f69\uff01
p4319
sVRemarkPYInitial
p4320
g45
sVContactFlag
p4321
I3
sVUin
p4322
I0
sVNickName
p4323
V\u5317\u4eac\u6f6e\u751f\u6d3b
p4324
sVAppAccountFlag
p4325
I0
sVVerifyFlag
p4326
I24
sVRemarkPYQuanPin
p4327
g45
sVHeadImgUrl
p4328
V/cgi-bin/mmwebwx-bin/webwxgeticon?seq=648558335&username=@6267a89ca07fcbfadad948bca217e6b4&skey=@crypt_7a97a81e_5cd31d7995feba3757e6dc9bbe7af259
p4329
sVKeyWord
p4330
Vgh_
p4331
sVProvince
p4332
V\u5e7f\u4e1c
p4333
sVPYInitial
p4334
VBJCSH
p4335
sVRemarkName
p4336
g45
sVIsOwner
p4337
I0
sVSex
p4338
I0
sVStarFriend
p4339
I0
sVHideInputBarFlag
p4340
I0
sVChatRoomId
p4341
I0
sVEncryChatRoomId
p4342
g45
sVAttrStatus
p4343
I0
sVStatues
p4344
I0
stp4345
Rp4346
I1
bag27
(g4260
g32
(dp4347
VUserName
p4348
V@70c99a48fc4dafd036274859622447b6
p4349
sVCity
p4350
V\u6df1\u5733
p4351
sVSnsFlag
p4352
I0
sVDisplayName
p4353
g45
sVUniFriend
p4354
I0
sVMemberCount
p4355
I0
sVOwnerUin
p4356
I0
sVMemberList
p4357
g43
sVAlias
p4358
g45
sVPYQuanPin
p4359
VjingdongJDCOM
p4360
sVSignature
p4361
V\u5173\u6ce8\u4eac\u4e1c\u670d\u52a1\u53f7\uff0c\u7b2c\u4e00\u65f6\u95f4\u83b7\u53d6\u5546\u54c1\u8ba2\u5355\u7269\u6d41\u63d0\u9192\u7b49\u670d\u52a1
p4362
sVRemarkPYInitial
p4363
g45
sVContactFlag
p4364
I3
sVUin
p4365
I0
sVNickName
p4366
V\u4eac\u4e1cJD.COM
p4367
sVAppAccountFlag
p4368
I0
sVVerifyFlag
p4369
I29
sVRemarkPYQuanPin
p4370
g45
sVHeadImgUrl
p4371
V/cgi-bin/mmwebwx-bin/webwxgeticon?seq=643300941&username=@70c99a48fc4dafd036274859622447b6&skey=@crypt_7a97a81e_5cd31d7995feba3757e6dc9bbe7af259
p4372
sVKeyWord
p4373
Vqqw
p4374
sVProvince
p4375
V\u5e7f\u4e1c
p4376
sVPYInitial
p4377
VJDJDCOM
p4378
sVRemarkName
p4379
g45
sVIsOwner
p4380
I0
sVSex
p4381
I0
sVStarFriend
p4382
I0
sVHideInputBarFlag
p4383
I0
sVChatRoomId
p4384
I0
sVEncryChatRoomId
p4385
g45
sVAttrStatus
p4386
I131073
sVStatues
p4387
I0
stp4388
Rp4389
I1
bag27
(g4260
g32
(dp4390
VUserName
p4391
V@627a4c06bafd156f57f892894ab34bd5
p4392
sVCity
p4393
V\u6df1\u5733
p4394
sVSnsFlag
p4395
I0
sVDisplayName
p4396
g45
sVUniFriend
p4397
I0
sVMemberCount
p4398
I0
sVOwnerUin
p4399
I0
sVMemberList
p4400
g43
sVAlias
p4401
g45
sVPYQuanPin
p4402
Vshoujichongzhi
p4403
sVSignature
p4404
V\u4e3a\u60a8\u63d0\u4f9b\u4fbf\u6377\u7684\u624b\u673a\u8bdd\u8d39\u5145\u503c\u7b49\u670d\u52a1\uff0c\u8fd8\u4f1a\u7ecf\u5e38\u544a\u8bc9\u60a8\u7ed9\u529b\u7684\u5145\u503c\u4f18\u60e0\u4fe1\u606f\u3002
p4405
sVRemarkPYInitial
p4406
g45
sVContactFlag
p4407
I3
sVUin
p4408
I0
sVNickName
p4409
V\u624b\u673a\u5145\u503c
p4410
sVAppAccountFlag
p4411
I0
sVVerifyFlag
p4412
I24
sVRemarkPYQuanPin
p4413
g45
sVHeadImgUrl
p4414
V/cgi-bin/mmwebwx-bin/webwxgeticon?seq=624120241&username=@627a4c06bafd156f57f892894ab34bd5&skey=@crypt_7a97a81e_5cd31d7995feba3757e6dc9bbe7af259
p4415
sVKeyWord
p4416
Vgh_
p4417
sVProvince
p4418
V\u5e7f\u4e1c
p4419
sVPYInitial
p4420
VSJCZ
p4421
sVRemarkName
p4422
g45
sVIsOwner
p4423
I0
sVSex
p4424
I0
sVStarFriend
p4425
I0
sVHideInputBarFlag
p4426
I0
sVChatRoomId
p4427
I0
sVEncryChatRoomId
p4428
g45
sVAttrStatus
p4429
I0
sVStatues
p4430
I0
stp4431
Rp4432
I1
bag27
(g4260
g32
(dp4433
VUserName
p4434
V@2378f2e8e9d692031da9baaab7f34f83
p4435
sVCity
p4436
V\u671d\u9633
p4437
sVSnsFlag
p4438
I0
sVDisplayName
p4439
g45
sVUniFriend
p4440
I0
sVMemberCount
p4441
I0
sVOwnerUin
p4442
I0
sVMemberList
p4443
g43
sVAlias
p4444
g45
sVPYQuanPin
p4445
VImportNew
p4446
sVSignature
p4447
V\u4f2f\u4e50\u5728\u7ebf\u65d7\u4e0b\u8d26\u53f7\uff0c\u4e13\u6ce8Java\u6280\u672f\u5206\u4eab\uff0c\u5305\u62ecJava\u57fa\u7840\u6280\u672f\u3001\u8fdb\u9636\u6280\u80fd\u3001\u67b6\u6784\u8bbe\u8ba1\u548cJava\u6280\u672f\u9886\u57df\u52a8\u6001\u7b49\u3002
p4448
sVRemarkPYInitial
p4449
g45
sVContactFlag
p4450
I3
sVUin
p4451
I0
sVNickName
p4452
VImportNew
p4453
sVAppAccountFlag
p4454
I0
sVVerifyFlag
p4455
I8
sVRemarkPYQuanPin
p4456
g45
sVHeadImgUrl
p4457
V/cgi-bin/mmwebwx-bin/webwxgeticon?seq=657944709&username=@2378f2e8e9d692031da9baaab7f34f83&skey=@crypt_7a97a81e_5cd31d7995feba3757e6dc9bbe7af259
p4458
sVKeyWord
p4459
Vgh_
p4460
sVProvince
p4461
V\u5317\u4eac
p4462
sVPYInitial
p4463
VIMPORTNEW
p4464
sVRemarkName
p4465
g45
sVIsOwner
p4466
I0
sVSex
p4467
I0
sVStarFriend
p4468
I0
sVHideInputBarFlag
p4469
I0
sVChatRoomId
p4470
I0
sVEncryChatRoomId
p4471
g45
sVAttrStatus
p4472
I0
sVStatues
p4473
I0
stp4474
Rp4475
I1
bag27
(g4260
g32
(dp4476
VUserName
p4477
V@28cd28ddf3d108d1bdb3a5171f9e33e1
p4478
sVCity
p4479
g45
sVSnsFlag
p4480
I0
sVDisplayName
p4481
g45
sVUniFriend
p4482
I0
sVMemberCount
p4483
I0
sVOwnerUin
p4484
I0
sVMemberList
p4485
g43
sVAlias
p4486
g45
sVPYQuanPin
p4487
Vtangjiasanshao
p4488
sVSignature
p4489
V\u4e2a\u4eba\u4e66\u53cb\u57fa\u5730\uff0c\u672c\u4eba\u4fe1\u606f\u53d1\u5e03\u5e73\u53f0\u3002
p4490
sVRemarkPYInitial
p4491
g45
sVContactFlag
p4492
I3
sVUin
p4493
I0
sVNickName
p4494
V\u5510\u5bb6\u4e09\u5c11
p4495
sVAppAccountFlag
p4496
I0
sVVerifyFlag
p4497
I24
sVRemarkPYQuanPin
p4498
g45
sVHeadImgUrl
p4499
V/cgi-bin/mmwebwx-bin/webwxgeticon?seq=620320222&username=@28cd28ddf3d108d1bdb3a5171f9e33e1&skey=@crypt_7a97a81e_5cd31d7995feba3757e6dc9bbe7af259
p4500
sVKeyWord
p4501
Vgh_
p4502
sVProvince
p4503
V\u5317\u4eac
p4504
sVPYInitial
p4505
VTJSS
p4506
sVRemarkName
p4507
g45
sVIsOwner
p4508
I0
sVSex
p4509
I0
sVStarFriend
p4510
I0
sVHideInputBarFlag
p4511
I0
sVChatRoomId
p4512
I0
sVEncryChatRoomId
p4513
g45
sVAttrStatus
p4514
I0
sVStatues
p4515
I0
stp4516
Rp4517
I1
bag27
(g4260
g32
(dp4518
VUserName
p4519
V@157fde06ecfef3815cd0f5d67c4c71ef
p4520
sVCity
p4521
V\u6d66\u4e1c\u65b0\u533a
p4522
sVSnsFlag
p4523
I0
sVDisplayName
p4524
g45
sVUniFriend
p4525
I0
sVMemberCount
p4526
I0
sVOwnerUin
p4527
I0
sVMemberList
p4528
g43
sVAlias
p4529
g45
sVPYQuanPin
p4530
Vkuloujingling
p4531
sVSignature
p4532
V\u7f51\u7edc\u4f5c\u5bb6\uff0c\u6b64\u53f7\u4e0e\u8bfb\u8005\u6c9f\u901a
p4533
sVRemarkPYInitial
p4534
g45
sVContactFlag
p4535
I3
sVUin
p4536
I0
sVNickName
p4537
V\u9ab7\u9ac5\u7cbe\u7075
p4538
sVAppAccountFlag
p4539
I0
sVVerifyFlag
p4540
I8
sVRemarkPYQuanPin
p4541
g45
sVHeadImgUrl
p4542
V/cgi-bin/mmwebwx-bin/webwxgeticon?seq=621030185&username=@157fde06ecfef3815cd0f5d67c4c71ef&skey=@crypt_7a97a81e_5cd31d7995feba3757e6dc9bbe7af259
p4543
sVKeyWord
p4544
Vgh_
p4545
sVProvince
p4546
V\u4e0a\u6d77
p4547
sVPYInitial
p4548
VKLJL
p4549
sVRemarkName
p4550
g45
sVIsOwner
p4551
I0
sVSex
p4552
I0
sVStarFriend
p4553
I0
sVHideInputBarFlag
p4554
I0
sVChatRoomId
p4555
I0
sVEncryChatRoomId
p4556
g45
sVAttrStatus
p4557
I0
sVStatues
p4558
I0
stp4559
Rp4560
I1
bag27
(g4260
g32
(dp4561
VUserName
p4562
V@597ca1b186d3fd32b8ba965dc9fce9a3
p4563
sVCity
p4564
V\u4fdd\u5b9a
p4565
sVSnsFlag
p4566
I0
sVDisplayName
p4567
g45
sVUniFriend
p4568
I0
sVMemberCount
p4569
I0
sVOwnerUin
p4570
I0
sVMemberList
p4571
g43
sVAlias
p4572
g45
sVPYQuanPin
p4573
g45
sVSignature
p4574
V\u5728\u8fd9\u91cc\u60a8\u53ef\u4ee5\u968f\u65f6\u638c\u63e1\u6700\u65b0\u7684IT\u8d44\u8baf\uff0c\u5173\u6ce8\u4e92\u8054\u7f51\u5b89\u5168\u52a8\u6001\u53d1\u5c55
p4575
sVRemarkPYInitial
p4576
g45
sVContactFlag
p4577
I3
sVUin
p4578
I0
sVNickName
p4579
g45
sVAppAccountFlag
p4580
I0
sVVerifyFlag
p4581
I8
sVRemarkPYQuanPin
p4582
g45
sVHeadImgUrl
p4583
V/cgi-bin/mmwebwx-bin/webwxgeticon?seq=621100212&username=@597ca1b186d3fd32b8ba965dc9fce9a3&skey=@crypt_7a97a81e_5cd31d7995feba3757e6dc9bbe7af259
p4584
sVKeyWord
p4585
Vgh_
p4586
sVProvince
p4587
V\u6cb3\u5317
p4588
sVPYInitial
p4589
g45
sVRemarkName
p4590
g45
sVIsOwner
p4591
I0
sVSex
p4592
I0
sVStarFriend
p4593
I0
sVHideInputBarFlag
p4594
I0
sVChatRoomId
p4595
I0
sVEncryChatRoomId
p4596
g45
sVAttrStatus
p4597
I0
sVStatues
p4598
I0
stp4599
Rp4600
I1
bag27
(g4260
g32
(dp4601
VUserName
p4602
V@9c6a25f8bb476763bd6937c7228e477a
p4603
sVCity
p4604
V\u79e6\u7687\u5c9b
p4605
sVSnsFlag
p4606
I0
sVDisplayName
p4607
g45
sVUniFriend
p4608
I0
sVMemberCount
p4609
I0
sVOwnerUin
p4610
I0
sVMemberList
p4611
g43
sVAlias
p4612
g45
sVPYQuanPin
p4613
Vqinhuangdaojiaoyuanwozhuxue
p4614
sVSignature
p4615
V\u79e6\u7687\u5c9b\u6821\u56ed\u6c83\u52a9\u5b66\uff0c\u5e2e\u52a9\u8398\u8398\u5b66\u5b50\u4eec\u66f4\u597d\u7684\u4eab\u53d7\u5b66\u751f\u65f6\u4ee3\uff0c\u5b9e\u73b0\u81ea\u5df1\u7684\u68a6\u60f3~
p4616
sVRemarkPYInitial
p4617
g45
sVContactFlag
p4618
I3
sVUin
p4619
I0
sVNickName
p4620
V\u79e6\u7687\u5c9b\u6821\u56ed\u6c83\u52a9\u5b66
p4621
sVAppAccountFlag
p4622
I0
sVVerifyFlag
p4623
I8
sVRemarkPYQuanPin
p4624
g45
sVHeadImgUrl
p4625
V/cgi-bin/mmwebwx-bin/webwxgeticon?seq=621210477&username=@9c6a25f8bb476763bd6937c7228e477a&skey=@crypt_7a97a81e_5cd31d7995feba3757e6dc9bbe7af259
p4626
sVKeyWord
p4627
Vgh_
p4628
sVProvince
p4629
V\u6cb3\u5317
p4630
sVPYInitial
p4631
VQHDJYWZX
p4632
sVRemarkName
p4633
g45
sVIsOwner
p4634
I0
sVSex
p4635
I0
sVStarFriend
p4636
I0
sVHideInputBarFlag
p4637
I0
sVChatRoomId
p4638
I0
sVEncryChatRoomId
p4639
g45
sVAttrStatus
p4640
I0
sVStatues
p4641
I0
stp4642
Rp4643
I1
bag27
(g4260
g32
(dp4644
VUserName
p4645
V@49398771ab3fa3c129ab880343f5aad8
p4646
sVCity
p4647
V\u95f8\u5317
p4648
sVSnsFlag
p4649
I0
sVDisplayName
p4650
g45
sVUniFriend
p4651
I0
sVMemberCount
p4652
I0
sVOwnerUin
p4653
I0
sVMemberList
p4654
g43
sVAlias
p4655
g45
sVPYQuanPin
p4656
VMiss
p4657
sVSignature
p4658
V\u4e2d\u56fd\u7535\u5b50\u7ade\u6280\u6700\u4f73\u5973\u9009\u624b\uff0c\u9b54\u517d\u4e89\u97383 \u5973\u5b50\u51a0\u519b\uff0c\u661f\u9645\u4e89\u97382\u5973\u738b\u8d5b\u51a0\u519b\uff0c\u6e38\u620f\u98ce\u4e91\u7535\u7ade\u4e3b\u6301\u4eba\uff0c\u4e2d\u56fd\u6700\u5168\u80fd\u6e38\u620f\u5973\u89e3\u8bf4\uff0cMiss\u6392\u4f4d\u65e5\u8bb0\u5236\u4f5c\u8005\u3002
p4659
sVRemarkPYInitial
p4660
g45
sVContactFlag
p4661
I3
sVUin
p4662
I0
sVNickName
p4663
VMiss
p4664
sVAppAccountFlag
p4665
I0
sVVerifyFlag
p4666
I8
sVRemarkPYQuanPin
p4667
g45
sVHeadImgUrl
p4668
V/cgi-bin/mmwebwx-bin/webwxgeticon?seq=621210938&username=@49398771ab3fa3c129ab880343f5aad8&skey=@crypt_7a97a81e_5cd31d7995feba3757e6dc9bbe7af259
p4669
sVKeyWord
p4670
Vgh_
p4671
sVProvince
p4672
V\u4e0a\u6d77
p4673
sVPYInitial
p4674
VMISS
p4675
sVRemarkName
p4676
g45
sVIsOwner
p4677
I0
sVSex
p4678
I0
sVStarFriend
p4679
I0
sVHideInputBarFlag
p4680
I0
sVChatRoomId
p4681
I0
sVEncryChatRoomId
p4682
g45
sVAttrStatus
p4683
I0
sVStatues
p4684
I0
stp4685
Rp4686
I1
bag27
(g4260
g32
(dp4687
VUserName
p4688
V@70cabc26d8481836dfb6827657d32969
p4689
sVCity
p4690
g45
sVSnsFlag
p4691
I0
sVDisplayName
p4692
g45
sVUniFriend
p4693
I0
sVMemberCount
p4694
I0
sVOwnerUin
p4695
I0
sVMemberList
p4696
g43
sVAlias
p4697
g45
sVPYQuanPin
p4698
Vchendong
p4699
sVSignature
p4700
V\u8fb0\u4e1c\u552f\u4e00\u8ba4\u8bc1\u5e73\u53f0\uff0c\u6b22\u8fce\u5144\u5f1f\u59d0\u59b9\u5230\u6765\uff0c\u8fd9\u91cc\u6709\u6211\u4ee5\u53ca\u4f5c\u54c1\u7684\u6700\u65b0\u6d88\u606f
p4701
sVRemarkPYInitial
p4702
g45
sVContactFlag
p4703
I3
sVUin
p4704
I0
sVNickName
p4705
V\u8fb0\u4e1c
p4706
sVAppAccountFlag
p4707
I0
sVVerifyFlag
p4708
I24
sVRemarkPYQuanPin
p4709
g45
sVHeadImgUrl
p4710
V/cgi-bin/mmwebwx-bin/webwxgeticon?seq=621211407&username=@70cabc26d8481836dfb6827657d32969&skey=@crypt_7a97a81e_5cd31d7995feba3757e6dc9bbe7af259
p4711
sVKeyWord
p4712
Vgh_
p4713
sVProvince
p4714
V\u5317\u4eac
p4715
sVPYInitial
p4716
VCD
p4717
sVRemarkName
p4718
g45
sVIsOwner
p4719
I0
sVSex
p4720
I0
sVStarFriend
p4721
I0
sVHideInputBarFlag
p4722
I0
sVChatRoomId
p4723
I0
sVEncryChatRoomId
p4724
g45
sVAttrStatus
p4725
I0
sVStatues
p4726
I0
stp4727
Rp4728
I1
bag27
(g4260
g32
(dp4729
VUserName
p4730
V@1b6159200243221cd559db67cc3ec759
p4731
sVCity
p4732
V\u5f90\u6c47
p4733
sVSnsFlag
p4734
I0
sVDisplayName
p4735
g45
sVUniFriend
p4736
I0
sVMemberCount
p4737
I0
sVOwnerUin
p4738
I0
sVMemberList
p4739
g43
sVAlias
p4740
g45
sVPYQuanPin
p4741
Vdaojucheng
p4742
sVSignature
p4743
V\u817e\u8baf\u6e38\u620f\uff0d\u9053\u805a\u57ce\uff0c\u63a8\u8350\u6700\u65b0\u6700\u4f18\u60e0\u7684\u9053\u5177\u6d3b\u52a8\u4fe1\u606f\uff0c\u53d1\u653e\uff31\u5e01\u3001\u4f18\u60e0\u5238\u3001\u514d\u5355\u798f\u5229\u3002\u9ad8\u7aef\u5927\u6c14\u4e0a\u6863\u6b21\uff0c\u6253\u9020\u5168\u7f51\u6700\u4f4e\u7684\u9053\u5177\u5e73\u53f0\uff01
p4744
sVRemarkPYInitial
p4745
g45
sVContactFlag
p4746
I3
sVUin
p4747
I0
sVNickName
p4748
V\u9053\u805a\u57ce
p4749
sVAppAccountFlag
p4750
I0
sVVerifyFlag
p4751
I24
sVRemarkPYQuanPin
p4752
g45
sVHeadImgUrl
p4753
V/cgi-bin/mmwebwx-bin/webwxgeticon?seq=621212961&username=@1b6159200243221cd559db67cc3ec759&skey=@crypt_7a97a81e_5cd31d7995feba3757e6dc9bbe7af259
p4754
sVKeyWord
p4755
Vgh_
p4756
sVProvince
p4757
V\u4e0a\u6d77
p4758
sVPYInitial
p4759
VDJC
p4760
sVRemarkName
p4761
g45
sVIsOwner
p4762
I0
sVSex
p4763
I0
sVStarFriend
p4764
I0
sVHideInputBarFlag
p4765
I0
sVChatRoomId
p4766
I0
sVEncryChatRoomId
p4767
g45
sVAttrStatus
p4768
I0
sVStatues
p4769
I0
stp4770
Rp4771
I1
bag27
(g4260
g32
(dp4772
VUserName
p4773
V@3b4d70e76b103e9ea7f2ee21d5df79b9
p4774
sVCity
p4775
V\u6df1\u5733
p4776
sVSnsFlag
p4777
I0
sVDisplayName
p4778
g45
sVUniFriend
p4779
I0
sVMemberCount
p4780
I0
sVOwnerUin
p4781
I0
sVMemberList
p4782
g43
sVAlias
p4783
g45
sVPYQuanPin
p4784
Vtengxunchongzhi
p4785
sVSignature
p4786
V\u5145\u503cQ\u5e01/\u5305\u6708\u670d\u52a1\u5f00\u901a/\u6e38\u620f\u70b9\u5238\u5145\u503c\uff1a\u652f\u6301\u8d22\u4ed8\u901a\u3001\u94f6\u884c\u5361\u5feb\u6377\u652f\u4ed8\u3001QQ\u5361\u3001\u624b\u673a\u5145\u503c\u5361\u3001\u5fae\u4fe1\u652f\u4ed8\u7b49\u591a\u4e2a\u6e20\u9053\uff0c\u968f\u65f6\u968f\u5730\u6ee1\u8db3\u60a8\u7684\u5145\u503c\u9700\u6c42\u3002
p4787
sVRemarkPYInitial
p4788
g45
sVContactFlag
p4789
I3
sVUin
p4790
I0
sVNickName
p4791
V\u817e\u8baf\u5145\u503c
p4792
sVAppAccountFlag
p4793
I0
sVVerifyFlag
p4794
I24
sVRemarkPYQuanPin
p4795
g45
sVHeadImgUrl
p4796
V/cgi-bin/mmwebwx-bin/webwxgeticon?seq=623950236&username=@3b4d70e76b103e9ea7f2ee21d5df79b9&skey=@crypt_7a97a81e_5cd31d7995feba3757e6dc9bbe7af259
p4797
sVKeyWord
p4798
Vgh_
p4799
sVProvince
p4800
V\u5e7f\u4e1c
p4801
sVPYInitial
p4802
VTXCZ
p4803
sVRemarkName
p4804
g45
sVIsOwner
p4805
I0
sVSex
p4806
I0
sVStarFriend
p4807
I0
sVHideInputBarFlag
p4808
I0
sVChatRoomId
p4809
I0
sVEncryChatRoomId
p4810
g45
sVAttrStatus
p4811
I0
sVStatues
p4812
I0
stp4813
Rp4814
I1
bag27
(g4260
g32
(dp4815
VUserName
p4816
V@895a516c6963ca306d1c1523a26866de
p4817
sVCity
p4818
V\u798f\u5dde
p4819
sVSnsFlag
p4820
I0
sVDisplayName
p4821
g45
sVUniFriend
p4822
I0
sVMemberCount
p4823
I0
sVOwnerUin
p4824
I0
sVMemberList
p4825
g43
sVAlias
p4826
g45
sVPYQuanPin
p4827
Vluanshu
p4828
sVSignature
p4829
V\u6b22\u8fce\u5927\u5bb6\u5173\u6ce8\u6211\u5728\u521b\u4e16\u4e2d\u6587\u7f51\u9996\u53d1\u7684\u300a\u5168\u804c\u6cd5\u5e08\u300b\u3001\u300a\u82f1\u96c4\u8054\u76df\u4e4b\u8c01\u4e0e\u4e89\u950b\u300b
p4830
sVRemarkPYInitial
p4831
g45
sVContactFlag
p4832
I3
sVUin
p4833
I0
sVNickName
p4834
V\u4e71\u53d4
p4835
sVAppAccountFlag
p4836
I0
sVVerifyFlag
p4837
I24
sVRemarkPYQuanPin
p4838
g45
sVHeadImgUrl
p4839
V/cgi-bin/mmwebwx-bin/webwxgeticon?seq=629150673&username=@895a516c6963ca306d1c1523a26866de&skey=@crypt_7a97a81e_5cd31d7995feba3757e6dc9bbe7af259
p4840
sVKeyWord
p4841
Vgh_
p4842
sVProvince
p4843
V\u798f\u5efa
p4844
sVPYInitial
p4845
VLS
p4846
sVRemarkName
p4847
g45
sVIsOwner
p4848
I0
sVSex
p4849
I0
sVStarFriend
p4850
I0
sVHideInputBarFlag
p4851
I0
sVChatRoomId
p4852
I0
sVEncryChatRoomId
p4853
g45
sVAttrStatus
p4854
I0
sVStatues
p4855
I0
stp4856
Rp4857
I1
bag27
(g4260
g32
(dp4858
VUserName
p4859
V@388f9421f267917e8886480776ddae3b
p4860
sVCity
p4861
V\u9ec4\u6d66
p4862
sVSnsFlag
p4863
I0
sVDisplayName
p4864
g45
sVUniFriend
p4865
I0
sVMemberCount
p4866
I0
sVOwnerUin
p4867
I0
sVMemberList
p4868
g43
sVAlias
p4869
g45
sVPYQuanPin
p4870
Verke
p4871
sVSignature
p4872
V\u4e8c\u73c2\u7c89\u4e1d\u5e73\u53f0\uff0c\u6700\u65b0\u4e8c\u73c2\u52a8\u6001\u548c\u8d44\u8baf
p4873
sVRemarkPYInitial
p4874
g45
sVContactFlag
p4875
I3
sVUin
p4876
I0
sVNickName
p4877
V\u4e8c\u73c2
p4878
sVAppAccountFlag
p4879
I0
sVVerifyFlag
p4880
I8
sVRemarkPYQuanPin
p4881
g45
sVHeadImgUrl
p4882
V/cgi-bin/mmwebwx-bin/webwxgeticon?seq=630040887&username=@388f9421f267917e8886480776ddae3b&skey=@crypt_7a97a81e_5cd31d7995feba3757e6dc9bbe7af259
p4883
sVKeyWord
p4884
Vgh_
p4885
sVProvince
p4886
V\u4e0a\u6d77
p4887
sVPYInitial
p4888
VEK
p4889
sVRemarkName
p4890
g45
sVIsOwner
p4891
I0
sVSex
p4892
I0
sVStarFriend
p4893
I0
sVHideInputBarFlag
p4894
I0
sVChatRoomId
p4895
I0
sVEncryChatRoomId
p4896
g45
sVAttrStatus
p4897
I0
sVStatues
p4898
I0
stp4899
Rp4900
I1
bag27
(g4260
g32
(dp4901
VUserName
p4902
V@f0422658de747e31165a4724cd809db3
p4903
sVCity
p4904
V\u6df1\u5733
p4905
sVSnsFlag
p4906
I0
sVDisplayName
p4907
g45
sVUniFriend
p4908
I0
sVMemberCount
p4909
I0
sVOwnerUin
p4910
I0
sVMemberList
p4911
g43
sVAlias
p4912
g45
sVPYQuanPin
p4913
Vqiushibaike
p4914
sVSignature
p4915
V\u7cd7\u4e8b\u767e\u79d1\u5b98\u65b9\u5fae\u4fe1\u53f7 qiushibaike.com
p4916
sVRemarkPYInitial
p4917
g45
sVContactFlag
p4918
I3
sVUin
p4919
I0
sVNickName
p4920
V\u7cd7\u4e8b\u767e\u79d1
p4921
sVAppAccountFlag
p4922
I0
sVVerifyFlag
p4923
I24
sVRemarkPYQuanPin
p4924
g45
sVHeadImgUrl
p4925
V/cgi-bin/mmwebwx-bin/webwxgeticon?seq=634462001&username=@f0422658de747e31165a4724cd809db3&skey=@crypt_7a97a81e_5cd31d7995feba3757e6dc9bbe7af259
p4926
sVKeyWord
p4927
Vgh_
p4928
sVProvince
p4929
V\u5e7f\u4e1c
p4930
sVPYInitial
p4931
VQSBK
p4932
sVRemarkName
p4933
g45
sVIsOwner
p4934
I0
sVSex
p4935
I0
sVStarFriend
p4936
I0
sVHideInputBarFlag
p4937
I0
sVChatRoomId
p4938
I0
sVEncryChatRoomId
p4939
g45
sVAttrStatus
p4940
I0
sVStatues
p4941
I0
stp4942
Rp4943
I1
bag27
(g4260
g32
(dp4944
VUserName
p4945
V@e005dc653446a46c222a75240861eba1
p4946
sVCity
p4947
V\u6df1\u5733
p4948
sVSnsFlag
p4949
I0
sVDisplayName
p4950
g45
sVUniFriend
p4951
I0
sVMemberCount
p4952
I0
sVOwnerUin
p4953
I0
sVMemberList
p4954
g43
sVAlias
p4955
g45
sVPYQuanPin
p4956
VQQanquanzhongxin
p4957
sVSignature
p4958
VQQ\u5b89\u5168\u4e2d\u5fc3\u5b98\u65b9\u5fae\u4fe1\u3002\u52aa\u529b\u4fdd\u62a4\u60a8\u7684QQ\u5b89\u5168\uff0c\u5173\u952e\u65f6\u523b\u53ca\u65f6\u63d0\u9192\uff0c\u968f\u65f6\u638c\u63e1\u5e10\u53f7\u5b89\u5168\u52a8\u6001\u3002
p4959
sVRemarkPYInitial
p4960
g45
sVContactFlag
p4961
I3
sVUin
p4962
I0
sVNickName
p4963
VQQ\u5b89\u5168\u4e2d\u5fc3
p4964
sVAppAccountFlag
p4965
I0
sVVerifyFlag
p4966
I24
sVRemarkPYQuanPin
p4967
g45
sVHeadImgUrl
p4968
V/cgi-bin/mmwebwx-bin/webwxgeticon?seq=634462169&username=@e005dc653446a46c222a75240861eba1&skey=@crypt_7a97a81e_5cd31d7995feba3757e6dc9bbe7af259
p4969
sVKeyWord
p4970
Vqqs
p4971
sVProvince
p4972
V\u5e7f\u4e1c
p4973
sVPYInitial
p4974
VQQAQZX
p4975
sVRemarkName
p4976
g45
sVIsOwner
p4977
I0
sVSex
p4978
I0
sVStarFriend
p4979
I0
sVHideInputBarFlag
p4980
I0
sVChatRoomId
p4981
I0
sVEncryChatRoomId
p4982
g45
sVAttrStatus
p4983
I0
sVStatues
p4984
I0
stp4985
Rp4986
I1
bag27
(g4260
g32
(dp4987
VUserName
p4988
V@bba5339dc07c16d6b133f00ad124146e
p4989
sVCity
p4990
V\u676d\u5dde
p4991
sVSnsFlag
p4992
I0
sVDisplayName
p4993
g45
sVUniFriend
p4994
I0
sVMemberCount
p4995
I0
sVOwnerUin
p4996
I0
sVMemberList
p4997
g43
sVAlias
p4998
g45
sVPYQuanPin
p4999
Vqinshimingyue
p5000
sVSignature
p5001
V\u7384\u673a\u5b98\u65b9\u8fd0\u8425\u53f7\u201c\u79e6\u65f6\u660e\u6708\u201d\u4e3a\u7384\u673a\u79d1\u6280\u65d7\u4e0b\u6700\u91cd\u78c5\u7ea7\u7684\u6ce8\u518c\u54c1\u724c\uff0c\u81f4\u529b\u4e8e\u6253\u9020\u201c\u79e6\u65f6\u660e\u6708\u201d\u5168\u54c1\u724c\u6218\u7565\uff0c\u5305\u542b\u300a\u79e6\u65f6\u660e\u6708\u300b\u7cfb\u5217TV\u52a8\u753b\u5267\u3001\u300a\u79e6\u65f6\u660e\u6708\u300bCG\u7535\u5f71\u3001\u300a\u79e6\u65f6\u660e\u6708\u300b\u5c0f\u8bf4\u3001\u79e6\u65f6\u660e\u6708\u6e38\u620f\u3001\u79e6\u65f6\u660e\u6708\u56fe\u4e66\u3001\u79e6\u65f6\u660e\u6708\u771f\u4eba\u7535\u89c6\u5267\u7b49\u4f17\u591a\u4ea7\u54c1\u5185\u5bb9\u3002
p5002
sVRemarkPYInitial
p5003
g45
sVContactFlag
p5004
I3
sVUin
p5005
I0
sVNickName
p5006
V\u79e6\u65f6\u660e\u6708
p5007
sVAppAccountFlag
p5008
I0
sVVerifyFlag
p5009
I24
sVRemarkPYQuanPin
p5010
g45
sVHeadImgUrl
p5011
V/cgi-bin/mmwebwx-bin/webwxgeticon?seq=630040919&username=@bba5339dc07c16d6b133f00ad124146e&skey=@crypt_7a97a81e_5cd31d7995feba3757e6dc9bbe7af259
p5012
sVKeyWord
p5013
Vgh_
p5014
sVProvince
p5015
V\u6d59\u6c5f
p5016
sVPYInitial
p5017
VQSMY
p5018
sVRemarkName
p5019
g45
sVIsOwner
p5020
I0
sVSex
p5021
I0
sVStarFriend
p5022
I0
sVHideInputBarFlag
p5023
I0
sVChatRoomId
p5024
I0
sVEncryChatRoomId
p5025
g45
sVAttrStatus
p5026
I0
sVStatues
p5027
I0
stp5028
Rp5029
I1
bag27
(g4260
g32
(dp5030
VUserName
p5031
V@318b43f2ff99e811e962cb6d1ff32264
p5032
sVCity
p5033
V\u79e6\u7687\u5c9b
p5034
sVSnsFlag
p5035
I0
sVDisplayName
p5036
g45
sVUniFriend
p5037
I0
sVMemberCount
p5038
I0
sVOwnerUin
p5039
I0
sVMemberList
p5040
g43
sVAlias
p5041
g45
sVPYQuanPin
p5042
Vnishijiwoshi
p5043
sVSignature
p5044
V\u65e8\u5728\u670d\u52a1\u5728\u6821\u5927\u5b66\u751f\uff0c\u63d0\u4f9b\u4e0d\u540c\u65f6\u671f\u7684\u5404\u7c7b\u8baf\u606f\u3002\u7528\u65b0\u65f6\u4ee3\u7684\u65b9\u5f0f\uff0c\u505a\u5bf9\u5927\u4f17\u6709\u76ca\u7684\u4e8b\u3002
p5045
sVRemarkPYInitial
p5046
g45
sVContactFlag
p5047
I3
sVUin
p5048
I0
sVNickName
p5049
V\u4f60\u4e8b\u5373\u6211\u4e8b
p5050
sVAppAccountFlag
p5051
I0
sVVerifyFlag
p5052
I8
sVRemarkPYQuanPin
p5053
g45
sVHeadImgUrl
p5054
V/cgi-bin/mmwebwx-bin/webwxgeticon?seq=634462313&username=@318b43f2ff99e811e962cb6d1ff32264&skey=@crypt_7a97a81e_5cd31d7995feba3757e6dc9bbe7af259
p5055
sVKeyWord
p5056
Vgh_
p5057
sVProvince
p5058
V\u6cb3\u5317
p5059
sVPYInitial
p5060
VNSJWS
p5061
sVRemarkName
p5062
g45
sVIsOwner
p5063
I0
sVSex
p5064
I0
sVStarFriend
p5065
I0
sVHideInputBarFlag
p5066
I0
sVChatRoomId
p5067
I0
sVEncryChatRoomId
p5068
g45
sVAttrStatus
p5069
I0
sVStatues
p5070
I0
stp5071
Rp5072
I1
bag27
(g4260
g32
(dp5073
VUserName
p5074
V@714c68cc704e81baf3a1ef77fdf5213c
p5075
sVCity
p5076
V\u79e6\u7687\u5c9b
p5077
sVSnsFlag
p5078
I0
sVDisplayName
p5079
g45
sVUniFriend
p5080
I0
sVMemberCount
p5081
I0
sVOwnerUin
p5082
I0
sVMemberList
p5083
g43
sVAlias
p5084
g45
sVPYQuanPin
p5085
Vyanshandaxuejiaotuanwei
p5086
sVSignature
p5087
V\u5173\u6ce8\u71d5\u5927\u9752\u5e74\uff0c\u83b7\u53d6\u6700\u65b0\u7684\u71d5\u5927\u6821\u56ed\u8d44\u8baf\uff0c\u4e86\u89e3\u71d5\u5927\u5b66\u751f\u52a8\u6001\u3002
p5088
sVRemarkPYInitial
p5089
g45
sVContactFlag
p5090
I3
sVUin
p5091
I0
sVNickName
p5092
V\u71d5\u5c71\u5927\u5b66\u6821\u56e2\u59d4
p5093
sVAppAccountFlag
p5094
I0
sVVerifyFlag
p5095
I24
sVRemarkPYQuanPin
p5096
g45
sVHeadImgUrl
p5097
V/cgi-bin/mmwebwx-bin/webwxgeticon?seq=634462606&username=@714c68cc704e81baf3a1ef77fdf5213c&skey=@crypt_7a97a81e_5cd31d7995feba3757e6dc9bbe7af259
p5098
sVKeyWord
p5099
Vgh_
p5100
sVProvince
p5101
V\u6cb3\u5317
p5102
sVPYInitial
p5103
VYSDXJTW
p5104
sVRemarkName
p5105
g45
sVIsOwner
p5106
I0
sVSex
p5107
I0
sVStarFriend
p5108
I0
sVHideInputBarFlag
p5109
I0
sVChatRoomId
p5110
I0
sVEncryChatRoomId
p5111
g45
sVAttrStatus
p5112
I0
sVStatues
p5113
I0
stp5114
Rp5115
I1
bag27
(g4260
g32
(dp5116
VUserName
p5117
V@27343ce215a87c5cce64f69953168259
p5118
sVCity
p5119
V\u6210\u90fd
p5120
sVSnsFlag
p5121
I0
sVDisplayName
p5122
g45
sVUniFriend
p5123
I0
sVMemberCount
p5124
I0
sVOwnerUin
p5125
I0
sVMemberList
p5126
g43
sVAlias
p5127
g45
sVPYQuanPin
p5128
VgongzhenEric
p5129
sVSignature
p5130
V\u6628\u5929\u7684\u6211\u4e0e\u4eca\u5929\u7684\u6211\u6709\u7740\u4e00\u4e66\u4e4b\u9694\u3002
p5131
sVRemarkPYInitial
p5132
g45
sVContactFlag
p5133
I3
sVUin
p5134
I0
sVNickName
p5135
V\u9f9a\u9707Eric
p5136
sVAppAccountFlag
p5137
I0
sVVerifyFlag
p5138
I8
sVRemarkPYQuanPin
p5139
g45
sVHeadImgUrl
p5140
V/cgi-bin/mmwebwx-bin/webwxgeticon?seq=637506572&username=@27343ce215a87c5cce64f69953168259&skey=@crypt_7a97a81e_5cd31d7995feba3757e6dc9bbe7af259
p5141
sVKeyWord
p5142
Vgh_
p5143
sVProvince
p5144
V\u56db\u5ddd
p5145
sVPYInitial
p5146
VGZERIC
p5147
sVRemarkName
p5148
g45
sVIsOwner
p5149
I0
sVSex
p5150
I0
sVStarFriend
p5151
I0
sVHideInputBarFlag
p5152
I0
sVChatRoomId
p5153
I0
sVEncryChatRoomId
p5154
g45
sVAttrStatus
p5155
I0
sVStatues
p5156
I0
stp5157
Rp5158
I1
bag27
(g4260
g32
(dp5159
VUserName
p5160
V@a43aecdee29f6f93a13b4e563b14b544
p5161
sVCity
p5162
V\u671d\u9633
p5163
sVSnsFlag
p5164
I0
sVDisplayName
p5165
g45
sVUniFriend
p5166
I0
sVMemberCount
p5167
I0
sVOwnerUin
p5168
I0
sVMemberList
p5169
g43
sVAlias
p5170
g45
sVPYQuanPin
p5171
Vkongfuziwang
p5172
sVSignature
p5173
V\u7f51\u7f57\u5929\u4e0b\u56fe\u4e66\uff0c\u4f20\u627f\u4e2d\u534e\u6587\u660e\u3002
p5174
sVRemarkPYInitial
p5175
g45
sVContactFlag
p5176
I3
sVUin
p5177
I0
sVNickName
p5178
V\u5b54\u592b\u5b50\u7f51
p5179
sVAppAccountFlag
p5180
I0
sVVerifyFlag
p5181
I8
sVRemarkPYQuanPin
p5182
g45
sVHeadImgUrl
p5183
V/cgi-bin/mmwebwx-bin/webwxgeticon?seq=640380446&username=@a43aecdee29f6f93a13b4e563b14b544&skey=@crypt_7a97a81e_5cd31d7995feba3757e6dc9bbe7af259
p5184
sVKeyWord
p5185
Vgh_
p5186
sVProvince
p5187
V\u5317\u4eac
p5188
sVPYInitial
p5189
VKFZW
p5190
sVRemarkName
p5191
g45
sVIsOwner
p5192
I0
sVSex
p5193
I0
sVStarFriend
p5194
I0
sVHideInputBarFlag
p5195
I0
sVChatRoomId
p5196
I0
sVEncryChatRoomId
p5197
g45
sVAttrStatus
p5198
I0
sVStatues
p5199
I0
stp5200
Rp5201
I1
bag27
(g4260
g32
(dp5202
VUserName
p5203
V@bb6d06980134f1b7fcd95f4ba59b5839
p5204
sVCity
p5205
V\u6df1\u5733
p5206
sVSnsFlag
p5207
I0
sVDisplayName
p5208
g45
sVUniFriend
p5209
I0
sVMemberCount
p5210
I0
sVOwnerUin
p5211
I0
sVMemberList
p5212
g43
sVAlias
p5213
g45
sVPYQuanPin
p5214
Vtengxunyouhuanquanzhongxin
p5215
sVSignature
p5216
V\u817e\u8baf\u6e38\u620f\u5b89\u5168\u4e2d\u5fc3\u5b98\u65b9\u5fae\u4fe1\u670d\u52a1\u53f7
p5217
sVRemarkPYInitial
p5218
g45
sVContactFlag
p5219
I3
sVUin
p5220
I0
sVNickName
p5221
V\u817e\u8baf\u6e38\u620f\u5b89\u5168\u4e2d\u5fc3
p5222
sVAppAccountFlag
p5223
I0
sVVerifyFlag
p5224
I24
sVRemarkPYQuanPin
p5225
g45
sVHeadImgUrl
p5226
V/cgi-bin/mmwebwx-bin/webwxgeticon?seq=640880393&username=@bb6d06980134f1b7fcd95f4ba59b5839&skey=@crypt_7a97a81e_5cd31d7995feba3757e6dc9bbe7af259
p5227
sVKeyWord
p5228
Vgh_
p5229
sVProvince
p5230
V\u5e7f\u4e1c
p5231
sVPYInitial
p5232
VTXYHAQZX
p5233
sVRemarkName
p5234
g45
sVIsOwner
p5235
I0
sVSex
p5236
I0
sVStarFriend
p5237
I0
sVHideInputBarFlag
p5238
I0
sVChatRoomId
p5239
I0
sVEncryChatRoomId
p5240
g45
sVAttrStatus
p5241
I0
sVStatues
p5242
I0
stp5243
Rp5244
I1
bag27
(g4260
g32
(dp5245
VUserName
p5246
V@b2be410cecfbcf6df21b013dfd1df88e
p5247
sVCity
p5248
g45
sVSnsFlag
p5249
I0
sVDisplayName
p5250
g45
sVUniFriend
p5251
I0
sVMemberCount
p5252
I0
sVOwnerUin
p5253
I0
sVMemberList
p5254
g43
sVAlias
p5255
g45
sVPYQuanPin
p5256
Vweixinzhifu
p5257
sVSignature
p5258
V\u5e2e\u52a9\u89e3\u51b3\u5fae\u4fe1\u652f\u4ed8\u4e2d\u9047\u5230\u7684\u56f0\u96be\uff0c\u6536\u96c6\u5173\u4e8e\u5fae\u4fe1\u652f\u4ed8\u7684\u5efa\u8bae\u53cd\u9988\u3002
p5259
sVRemarkPYInitial
p5260
g45
sVContactFlag
p5261
I1
sVUin
p5262
I0
sVNickName
p5263
V\u5fae\u4fe1\u652f\u4ed8
p5264
sVAppAccountFlag
p5265
I0
sVVerifyFlag
p5266
I24
sVRemarkPYQuanPin
p5267
g45
sVHeadImgUrl
p5268
V/cgi-bin/mmwebwx-bin/webwxgeticon?seq=620440638&username=@b2be410cecfbcf6df21b013dfd1df88e&skey=@crypt_7a97a81e_5cd31d7995feba3757e6dc9bbe7af259
p5269
sVKeyWord
p5270
Vgh_
p5271
sVProvince
p5272
V\u5e7f\u4e1c
p5273
sVPYInitial
p5274
VWXZF
p5275
sVRemarkName
p5276
g45
sVIsOwner
p5277
I0
sVSex
p5278
I0
sVStarFriend
p5279
I0
sVHideInputBarFlag
p5280
I0
sVChatRoomId
p5281
I0
sVEncryChatRoomId
p5282
g45
sVAttrStatus
p5283
I0
sVStatues
p5284
I0
stp5285
Rp5286
I1
bag27
(g4260
g32
(dp5287
VUserName
p5288
V@0a1534ab24e2ea707cfd8bd3731c94a4
p5289
sVCity
p5290
V\u6210\u90fd
p5291
sVSnsFlag
p5292
I0
sVDisplayName
p5293
g45
sVUniFriend
p5294
I0
sVMemberCount
p5295
I0
sVOwnerUin
p5296
I0
sVMemberList
p5297
g43
sVAlias
p5298
g45
sVPYQuanPin
p5299
VqieUHRyuCRAT
p5300
sVSignature
p5301
V\u662f\u4f01\u9e45\u9ad8\u6821HR\uff08UHR\uff09\u548c\u4f01\u9e45\u6821\u56ed\u62db\u8058\u52a9\u7406\u56e2\u961f\uff08CRAT\uff09\u8fde\u63a5\u5728\u6821\u5927\u5b66\u751f\u7684\u516c\u4f17\u5e73\u53f0\u3002 \u54a8\u8be2\u90ae\u4ef6 cdhr@tencent.com
p5302
sVRemarkPYInitial
p5303
g45
sVContactFlag
p5304
I3
sVUin
p5305
I0
sVNickName
p5306
V\u4f01\u9e45UHR\u4e0eCRAT
p5307
sVAppAccountFlag
p5308
I0
sVVerifyFlag
p5309
I24
sVRemarkPYQuanPin
p5310
g45
sVHeadImgUrl
p5311
V/cgi-bin/mmwebwx-bin/webwxgeticon?seq=640884076&username=@0a1534ab24e2ea707cfd8bd3731c94a4&skey=@crypt_7a97a81e_5cd31d7995feba3757e6dc9bbe7af259
p5312
sVKeyWord
p5313
Vgh_
p5314
sVProvince
p5315
V\u56db\u5ddd
p5316
sVPYInitial
p5317
VQEUHRYCRAT
p5318
sVRemarkName
p5319
g45
sVIsOwner
p5320
I0
sVSex
p5321
I0
sVStarFriend
p5322
I0
sVHideInputBarFlag
p5323
I0
sVChatRoomId
p5324
I0
sVEncryChatRoomId
p5325
g45
sVAttrStatus
p5326
I0
sVStatues
p5327
I0
stp5328
Rp5329
I1
bag27
(g4260
g32
(dp5330
VUserName
p5331
V@faba3f5fb3f337a990d401b9a8fa7d69
p5332
sVCity
p5333
V\u5f90\u6c47
p5334
sVSnsFlag
p5335
I0
sVDisplayName
p5336
g45
sVUniFriend
p5337
I0
sVMemberCount
p5338
I0
sVOwnerUin
p5339
I0
sVMemberList
p5340
g43
sVAlias
p5341
g45
sVPYQuanPin
p5342
VUliao
p5343
sVSignature
p5344
V\u505a\u4e2a\u6709\u6599\u7684\u5927\u5b66\u751f\u3002
p5345
sVRemarkPYInitial
p5346
g45
sVContactFlag
p5347
I3
sVUin
p5348
I0
sVNickName
p5349
VU\u6599
p5350
sVAppAccountFlag
p5351
I0
sVVerifyFlag
p5352
I24
sVRemarkPYQuanPin
p5353
g45
sVHeadImgUrl
p5354
V/cgi-bin/mmwebwx-bin/webwxgeticon?seq=643300985&username=@faba3f5fb3f337a990d401b9a8fa7d69&skey=@crypt_7a97a81e_5cd31d7995feba3757e6dc9bbe7af259
p5355
sVKeyWord
p5356
Vgh_
p5357
sVProvince
p5358
V\u4e0a\u6d77
p5359
sVPYInitial
p5360
VUL
p5361
sVRemarkName
p5362
g45
sVIsOwner
p5363
I0
sVSex
p5364
I0
sVStarFriend
p5365
I0
sVHideInputBarFlag
p5366
I0
sVChatRoomId
p5367
I0
sVEncryChatRoomId
p5368
g45
sVAttrStatus
p5369
I0
sVStatues
p5370
I0
stp5371
Rp5372
I1
bag27
(g4260
g32
(dp5373
VUserName
p5374
V@d9ff4670f142d846080eea06fe09ead7
p5375
sVCity
p5376
V\u676d\u5dde
p5377
sVSnsFlag
p5378
I0
sVDisplayName
p5379
g45
sVUniFriend
p5380
I0
sVMemberCount
p5381
I0
sVOwnerUin
p5382
I0
sVMemberList
p5383
g43
sVAlias
p5384
g45
sVPYQuanPin
p5385
Valibabazhaopin
p5386
sVSignature
p5387
V\u963f\u91cc\u5df4\u5df4\u6821\u56ed\u62db\u8058&amp;\u793e\u4f1a\u62db\u8058\u5b98\u65b9\u516c\u4f17\u53f7
p5388
sVRemarkPYInitial
p5389
g45
sVContactFlag
p5390
I3
sVUin
p5391
I0
sVNickName
p5392
V\u963f\u91cc\u5df4\u5df4\u62db\u8058
p5393
sVAppAccountFlag
p5394
I0
sVVerifyFlag
p5395
I24
sVRemarkPYQuanPin
p5396
g45
sVHeadImgUrl
p5397
V/cgi-bin/mmwebwx-bin/webwxgeticon?seq=645460457&username=@d9ff4670f142d846080eea06fe09ead7&skey=@crypt_7a97a81e_5cd31d7995feba3757e6dc9bbe7af259
p5398
sVKeyWord
p5399
Vgh_
p5400
sVProvince
p5401
V\u6d59\u6c5f
p5402
sVPYInitial
p5403
VALBBZP
p5404
sVRemarkName
p5405
g45
sVIsOwner
p5406
I0
sVSex
p5407
I0
sVStarFriend
p5408
I0
sVHideInputBarFlag
p5409
I0
sVChatRoomId
p5410
I0
sVEncryChatRoomId
p5411
g45
sVAttrStatus
p5412
I0
sVStatues
p5413
I0
stp5414
Rp5415
I1
bag27
(g4260
g32
(dp5416
VUserName
p5417
V@ed60c463060c783a339ff5a51f0d4da1
p5418
sVCity
p5419
V\u5e7f\u5dde
p5420
sVSnsFlag
p5421
I0
sVDisplayName
p5422
g45
sVUniFriend
p5423
I0
sVMemberCount
p5424
I0
sVOwnerUin
p5425
I0
sVMemberList
p5426
g43
sVAlias
p5427
g45
sVPYQuanPin
p5428
Vgongzhongpingtaianquanzhushou
p5429
sVSignature
p5430
V\u63d0\u4f9b\u5fae\u4fe1\u516c\u4f17\u53f7\u767b\u5f55\u548c\u7fa4\u53d1\u7b49\u5b89\u5168\u64cd\u4f5c\uff0c\u5728\u624b\u673a\u4e0a\u67e5\u6536\u6d88\u606f\u3001\u8bc4\u8bba\u3001\u8d5e\u8d4f\uff0c\u65b0\u5efa\u7fa4\u53d1\u548c\u67e5\u770b\u7fa4\u53d1\u5386\u53f2\u3002
p5431
sVRemarkPYInitial
p5432
g45
sVContactFlag
p5433
I3
sVUin
p5434
I0
sVNickName
p5435
V\u516c\u4f17\u5e73\u53f0\u5b89\u5168\u52a9\u624b
p5436
sVAppAccountFlag
p5437
I0
sVVerifyFlag
p5438
I24
sVRemarkPYQuanPin
p5439
g45
sVHeadImgUrl
p5440
V/cgi-bin/mmwebwx-bin/webwxgeticon?seq=646602355&username=@ed60c463060c783a339ff5a51f0d4da1&skey=@crypt_7a97a81e_5cd31d7995feba3757e6dc9bbe7af259
p5441
sVKeyWord
p5442
Vmph
p5443
sVProvince
p5444
V\u5e7f\u4e1c
p5445
sVPYInitial
p5446
VGZPTAQZS
p5447
sVRemarkName
p5448
g45
sVIsOwner
p5449
I0
sVSex
p5450
I0
sVStarFriend
p5451
I0
sVHideInputBarFlag
p5452
I0
sVChatRoomId
p5453
I0
sVEncryChatRoomId
p5454
g45
sVAttrStatus
p5455
I98459
sVStatues
p5456
I0
stp5457
Rp5458
I1
bag27
(g4260
g32
(dp5459
VUserName
p5460
V@91c97a7e2c8650b335a3181c452c906b
p5461
sVCity
p5462
V\u79e6\u7687\u5c9b
p5463
sVSnsFlag
p5464
I0
sVDisplayName
p5465
g45
sVUniFriend
p5466
I0
sVMemberCount
p5467
I0
sVOwnerUin
p5468
I0
sVMemberList
p5469
g43
sVAlias
p5470
g45
sVPYQuanPin
p5471
Vshouxiedecongqiandian
p5472
sVSignature
p5473
V\u5fae\u98ce\u9700\u8981\u7af9\u6797  \u6eaa\u6d41\u9700\u8981\u873b\u8713\u4e61\u6101\u822c\u7684\u79bb\u5f00  \u9700\u8981\u7247\u7247\u6d6e\u840d
p5474
sVRemarkPYInitial
p5475
g45
sVContactFlag
p5476
I3
sVUin
p5477
I0
sVNickName
p5478
V\u624b\u5199\u7684\u4ece\u524d\u4e36
p5479
sVAppAccountFlag
p5480
I0
sVVerifyFlag
p5481
I8
sVRemarkPYQuanPin
p5482
g45
sVHeadImgUrl
p5483
V/cgi-bin/mmwebwx-bin/webwxgeticon?seq=646602364&username=@91c97a7e2c8650b335a3181c452c906b&skey=@crypt_7a97a81e_5cd31d7995feba3757e6dc9bbe7af259
p5484
sVKeyWord
p5485
Vgh_
p5486
sVProvince
p5487
V\u6cb3\u5317
p5488
sVPYInitial
p5489
VSXDCQD
p5490
sVRemarkName
p5491
g45
sVIsOwner
p5492
I0
sVSex
p5493
I0
sVStarFriend
p5494
I0
sVHideInputBarFlag
p5495
I0
sVChatRoomId
p5496
I0
sVEncryChatRoomId
p5497
g45
sVAttrStatus
p5498
I0
sVStatues
p5499
I0
stp5500
Rp5501
I1
bag27
(g4260
g32
(dp5502
VUserName
p5503
V@f29f7613c2c9de7a1a12ff11db95e29b
p5504
sVCity
p5505
V\u5e7f\u5dde
p5506
sVSnsFlag
p5507
I0
sVDisplayName
p5508
g45
sVUniFriend
p5509
I0
sVMemberCount
p5510
I0
sVOwnerUin
p5511
I0
sVMemberList
p5512
g43
sVAlias
p5513
g45
sVPYQuanPin
p5514
Vweixinyouhu
p5515
sVSignature
p5516
V\u5173\u6ce8\u5fae\u4fe1\u6e38\u620f\u5b98\u65b9\u516c\u4f17\u5e10\u53f7\uff0c\u5373\u65f6\u6536\u53d6\u6e38\u620f\u8baf\u606f\uff0c\u8fd8\u80fd\u67e5\u770b\u5404\u6e38\u620f\u653b\u7565\uff0c\u62a2\u5148\u4f53\u9a8c\u6d3b\u52a8\uff01
p5517
sVRemarkPYInitial
p5518
g45
sVContactFlag
p5519
I1
sVUin
p5520
I0
sVNickName
p5521
V\u5fae\u4fe1\u6e38\u620f
p5522
sVAppAccountFlag
p5523
I0
sVVerifyFlag
p5524
I24
sVRemarkPYQuanPin
p5525
g45
sVHeadImgUrl
p5526
V/cgi-bin/mmwebwx-bin/webwxgeticon?seq=620610195&username=@f29f7613c2c9de7a1a12ff11db95e29b&skey=@crypt_7a97a81e_5cd31d7995feba3757e6dc9bbe7af259
p5527
sVKeyWord
p5528
Vgh_
p5529
sVProvince
p5530
V\u5e7f\u4e1c
p5531
sVPYInitial
p5532
VWXYH
p5533
sVRemarkName
p5534
g45
sVIsOwner
p5535
I0
sVSex
p5536
I0
sVStarFriend
p5537
I0
sVHideInputBarFlag
p5538
I0
sVChatRoomId
p5539
I0
sVEncryChatRoomId
p5540
g45
sVAttrStatus
p5541
I0
sVStatues
p5542
I0
stp5543
Rp5544
I1
bag27
(g4260
g32
(dp5545
VUserName
p5546
V@c7c4deaff882e0e16f6a54388a6e8f0b
p5547
sVCity
p5548
V\u4e1c\u57ce
p5549
sVSnsFlag
p5550
I0
sVDisplayName
p5551
g45
sVUniFriend
p5552
I0
sVMemberCount
p5553
I0
sVOwnerUin
p5554
I0
sVMemberList
p5555
g43
sVAlias
p5556
g45
sVPYQuanPin
p5557
Vchengxuyuandenaxieshi
p5558
sVSignature
p5559
V\u6700\u6709\u5f71\u54cd\u529b\u7684\u7a0b\u5e8f\u5458\u81ea\u5a92\u4f53\uff0c\u5173\u6ce8\u7a0b\u5e8f\u5458\u76f8\u5173\u8bdd\u9898\uff1aIT\u6280\u672f\u3001IT\u804c\u573a\u3001\u5728\u7ebf\u8bfe\u7a0b\u3001\u5b66\u4e60\u8d44\u6e90\u7b49\u3002
p5560
sVRemarkPYInitial
p5561
g45
sVContactFlag
p5562
I3
sVUin
p5563
I0
sVNickName
p5564
V\u7a0b\u5e8f\u5458\u7684\u90a3\u4e9b\u4e8b
p5565
sVAppAccountFlag
p5566
I0
sVVerifyFlag
p5567
I24
sVRemarkPYQuanPin
p5568
g45
sVHeadImgUrl
p5569
V/cgi-bin/mmwebwx-bin/webwxgeticon?seq=646603772&username=@c7c4deaff882e0e16f6a54388a6e8f0b&skey=@crypt_7a97a81e_5cd31d7995feba3757e6dc9bbe7af259
p5570
sVKeyWord
p5571
Vgh_
p5572
sVProvince
p5573
V\u5317\u4eac
p5574
sVPYInitial
p5575
VCXYDNXS
p5576
sVRemarkName
p5577
g45
sVIsOwner
p5578
I0
sVSex
p5579
I0
sVStarFriend
p5580
I0
sVHideInputBarFlag
p5581
I0
sVChatRoomId
p5582
I0
sVEncryChatRoomId
p5583
g45
sVAttrStatus
p5584
I0
sVStatues
p5585
I0
stp5586
Rp5587
I1
bag27
(g4260
g32
(dp5588
VUserName
p5589
V@7e423fcd61c2a2d2d33b3d15c03f1930
p5590
sVCity
p5591
V\u5e7f\u5dde
p5592
sVSnsFlag
p5593
I0
sVDisplayName
p5594
g45
sVUniFriend
p5595
I0
sVMemberCount
p5596
I0
sVOwnerUin
p5597
I0
sVMemberList
p5598
g43
sVAlias
p5599
g45
sVPYQuanPin
p5600
Vzhixinghuochepiaofuwuhao
p5601
sVSignature
p5602
V\u4e00\u7ad9\u5f0f\u51fa\u884c\u9884\u8ba2\u5e73\u53f0\uff0c\u706b\u8f66\u7968\u62a2\u7968\u795e\u5668\uff0c24\u5c0f\u65f6\u5b9e\u65f6\u76d1\u63a7\u4f59\u7968\uff0c\u667a\u80fd\u81ea\u52a8\u4e0b\u5355\u3002 \u66f4\u591a\u7279\u4ef7\u7ebf\u8def\u4f18\u60e0\u4fe1\u606f\u8be6\u89c1\u5b9a\u671f\u63a8\u9001~
p5603
sVRemarkPYInitial
p5604
g45
sVContactFlag
p5605
I3
sVUin
p5606
I0
sVNickName
p5607
V\u667a\u884c\u706b\u8f66\u7968\u670d\u52a1\u53f7
p5608
sVAppAccountFlag
p5609
I0
sVVerifyFlag
p5610
I24
sVRemarkPYQuanPin
p5611
g45
sVHeadImgUrl
p5612
V/cgi-bin/mmwebwx-bin/webwxgeticon?seq=648552437&username=@7e423fcd61c2a2d2d33b3d15c03f1930&skey=@crypt_7a97a81e_5cd31d7995feba3757e6dc9bbe7af259
p5613
sVKeyWord
p5614
Vgh_
p5615
sVProvince
p5616
V\u5e7f\u4e1c
p5617
sVPYInitial
p5618
VZXHCPFWH
p5619
sVRemarkName
p5620
g45
sVIsOwner
p5621
I0
sVSex
p5622
I0
sVStarFriend
p5623
I0
sVHideInputBarFlag
p5624
I0
sVChatRoomId
p5625
I0
sVEncryChatRoomId
p5626
g45
sVAttrStatus
p5627
I0
sVStatues
p5628
I0
stp5629
Rp5630
I1
bag27
(g4260
g32
(dp5631
VUserName
p5632
V@7d72b1852cca335cdf164309fb278c82
p5633
sVCity
p5634
V\u6df1\u5733
p5635
sVSnsFlag
p5636
I0
sVDisplayName
p5637
g45
sVUniFriend
p5638
I0
sVMemberCount
p5639
I0
sVOwnerUin
p5640
I0
sVMemberList
p5641
g43
sVAlias
p5642
g45
sVPYQuanPin
p5643
Vtengxunyunzhushou
p5644
sVSignature
p5645
V\u4e3a\u60a8\u63a8\u9001\u76d1\u63a7\u3001\u5b89\u5168\u3001\u8d22\u52a1\u901a\u77e5\uff0c\u4e3a\u60a8\u63d0\u4f9b\u4e91\u670d\u52a1\u6027\u80fd\u6307\u6807\u76d1\u63a7\u53ca\u7ba1\u7406\u529f\u80fd\uff0c\u52a9\u4f60\u63d0\u5347\u8fd0\u8425\u6548\u7387
p5646
sVRemarkPYInitial
p5647
g45
sVContactFlag
p5648
I3
sVUin
p5649
I0
sVNickName
p5650
V\u817e\u8baf\u4e91\u52a9\u624b
p5651
sVAppAccountFlag
p5652
I0
sVVerifyFlag
p5653
I24
sVRemarkPYQuanPin
p5654
g45
sVHeadImgUrl
p5655
V/cgi-bin/mmwebwx-bin/webwxgeticon?seq=648554038&username=@7d72b1852cca335cdf164309fb278c82&skey=@crypt_7a97a81e_5cd31d7995feba3757e6dc9bbe7af259
p5656
sVKeyWord
p5657
Vgh_
p5658
sVProvince
p5659
V\u5e7f\u4e1c
p5660
sVPYInitial
p5661
VTXYZS
p5662
sVRemarkName
p5663
g45
sVIsOwner
p5664
I0
sVSex
p5665
I0
sVStarFriend
p5666
I0
sVHideInputBarFlag
p5667
I0
sVChatRoomId
p5668
I0
sVEncryChatRoomId
p5669
g45
sVAttrStatus
p5670
I0
sVStatues
p5671
I0
stp5672
Rp5673
I1
bag27
(g4260
g32
(dp5674
VUserName
p5675
V@69d73a06ea2decb987af721b14ca5618
p5676
sVCity
p5677
V\u5e7f\u5dde
p5678
sVSnsFlag
p5679
I0
sVDisplayName
p5680
g45
sVUniFriend
p5681
I0
sVMemberCount
p5682
I0
sVOwnerUin
p5683
I0
sVMemberList
p5684
g43
sVAlias
p5685
g45
sVPYQuanPin
p5686
Vgongzhongpingtaiceshizhanghaojitong
p5687
sVSignature
p5688
V\u6d4b\u8bd5\u8d26\u53f7\u7cfb\u7edf
p5689
sVRemarkPYInitial
p5690
g45
sVContactFlag
p5691
I3
sVUin
p5692
I0
sVNickName
p5693
V\u516c\u4f17\u5e73\u53f0\u6d4b\u8bd5\u8d26\u53f7\u7cfb\u7edf
p5694
sVAppAccountFlag
p5695
I0
sVVerifyFlag
p5696
I8
sVRemarkPYQuanPin
p5697
g45
sVHeadImgUrl
p5698
V/cgi-bin/mmwebwx-bin/webwxgeticon?seq=648555448&username=@69d73a06ea2decb987af721b14ca5618&skey=@crypt_7a97a81e_5cd31d7995feba3757e6dc9bbe7af259
p5699
sVKeyWord
p5700
Vgh_
p5701
sVProvince
p5702
V\u5e7f\u4e1c
p5703
sVPYInitial
p5704
VGZPTCSZHJT
p5705
sVRemarkName
p5706
g45
sVIsOwner
p5707
I0
sVSex
p5708
I0
sVStarFriend
p5709
I0
sVHideInputBarFlag
p5710
I0
sVChatRoomId
p5711
I0
sVEncryChatRoomId
p5712
g45
sVAttrStatus
p5713
I0
sVStatues
p5714
I0
stp5715
Rp5716
I1
bag27
(g4260
g32
(dp5717
VUserName
p5718
V@584d1ceb1bc9bce24f9b0bc815e1289c
p5719
sVCity
p5720
g45
sVSnsFlag
p5721
I0
sVDisplayName
p5722
g45
sVUniFriend
p5723
I0
sVMemberCount
p5724
I0
sVOwnerUin
p5725
I0
sVMemberList
p5726
g43
sVAlias
p5727
g45
sVPYQuanPin
p5728
Vzhongguogongshangyinxingdianziyinxing
p5729
sVSignature
p5730
V\u4e2d\u56fd\u5de5\u5546\u94f6\u884c\u7535\u5b50\u94f6\u884c\u5b98\u65b9\u516c\u4f17\u53f7\uff01\u76f4\u63a5\u8f93\u5165\u95ee\u9898\uff0c\u667a\u80fd\u5ba2\u670d\u201c\u5de5\u5c0f\u667a\u201d724\u5c0f\u65f6\u5728\u7ebf\u4e3a\u60a8\u89e3\u7b54\uff0c\u66f4\u6709\u4f18\u60e0\u4fe1\u606f\u3001\u9ec4\u91d1\u4ef7\u683c\u3001\u7f51\u70b9\u67e5\u8be2\u3001\u4f59\u989d\u67e5\u8be2\u7b49\u8bf8\u591a\u670d\u52a1\uff0c\u7acb\u5373\u5173\u6ce8\uff0c\u5c3d\u4eab\u667a\u60e0\u91d1\u878d\uff01
p5731
sVRemarkPYInitial
p5732
g45
sVContactFlag
p5733
I1
sVUin
p5734
I0
sVNickName
p5735
V\u4e2d\u56fd\u5de5\u5546\u94f6\u884c\u7535\u5b50\u94f6\u884c
p5736
sVAppAccountFlag
p5737
I0
sVVerifyFlag
p5738
I24
sVRemarkPYQuanPin
p5739
g45
sVHeadImgUrl
p5740
V/cgi-bin/mmwebwx-bin/webwxgeticon?seq=638455028&username=@584d1ceb1bc9bce24f9b0bc815e1289c&skey=@crypt_7a97a81e_5cd31d7995feba3757e6dc9bbe7af259
p5741
sVKeyWord
p5742
Vgh_
p5743
sVProvince
p5744
V\u5317\u4eac
p5745
sVPYInitial
p5746
VZGGSYXDZYX
p5747
sVRemarkName
p5748
g45
sVIsOwner
p5749
I0
sVSex
p5750
I0
sVStarFriend
p5751
I0
sVHideInputBarFlag
p5752
I0
sVChatRoomId
p5753
I0
sVEncryChatRoomId
p5754
g45
sVAttrStatus
p5755
I0
sVStatues
p5756
I0
stp5757
Rp5758
I1
bag27
(g4260
g32
(dp5759
VUserName
p5760
V@e1c73a0a99f3d0d865c4b27ed5708aaa
p5761
sVCity
p5762
V\u6210\u90fd
p5763
sVSnsFlag
p5764
I0
sVDisplayName
p5765
g45
sVUniFriend
p5766
I0
sVMemberCount
p5767
I0
sVOwnerUin
p5768
I0
sVMemberList
p5769
g43
sVAlias
p5770
g45
sVPYQuanPin
p5771
Vzhongguoheikelianmeng
p5772
sVSignature
p5773
V\u4e2d\u56fd\u9ed1\u5ba2\u8054\u76df\uff0c\u63d0\u4f9b\u6700\u65b0\u7684\u9ed1\u5ba2\u6280\u672f,\u9ed1\u5ba2\u6559\u7a0b,\u9ed1\u5ba2\u65b0\u95fb\u8d44\u8baf\uff0c\u5b9a\u671f\u4e3e\u529e\u514d\u8d39\u9001\u9ed1\u5ba2\u6559\u7a0b\u6d3b\u52a8\u3002\u9ed1\u5ba2\u6559\u7a0b\u5305\u542b:\u7535\u8111\u6280\u672f|\u624b\u673a\u8f6f\u4ef6|\u7f51\u7ad9\u5165\u4fb5|\u9ed1\u5ba2\u57fa\u7840|\u653b\u51fb|\u6728\u9a6c \u521b\u59cb\u4ebasyskey
p5774
sVRemarkPYInitial
p5775
g45
sVContactFlag
p5776
I3
sVUin
p5777
I0
sVNickName
p5778
V\u4e2d\u56fd\u9ed1\u5ba2\u8054\u76df
p5779
sVAppAccountFlag
p5780
I0
sVVerifyFlag
p5781
I8
sVRemarkPYQuanPin
p5782
g45
sVHeadImgUrl
p5783
V/cgi-bin/mmwebwx-bin/webwxgeticon?seq=648557397&username=@e1c73a0a99f3d0d865c4b27ed5708aaa&skey=@crypt_7a97a81e_5cd31d7995feba3757e6dc9bbe7af259
p5784
sVKeyWord
p5785
Vgh_
p5786
sVProvince
p5787
V\u56db\u5ddd
p5788
sVPYInitial
p5789
VZGHKLM
p5790
sVRemarkName
p5791
g45
sVIsOwner
p5792
I0
sVSex
p5793
I0
sVStarFriend
p5794
I0
sVHideInputBarFlag
p5795
I0
sVChatRoomId
p5796
I0
sVEncryChatRoomId
p5797
g45
sVAttrStatus
p5798
I0
sVStatues
p5799
I0
stp5800
Rp5801
I1
bag27
(g4260
g32
(dp5802
VUserName
p5803
V@a82e1e870fd5f5fb0edadc7938240ed8
p5804
sVCity
p5805
V\u671d\u9633
p5806
sVSnsFlag
p5807
I0
sVDisplayName
p5808
g45
sVUniFriend
p5809
I0
sVMemberCount
p5810
I0
sVOwnerUin
p5811
I0
sVMemberList
p5812
g43
sVAlias
p5813
g45
sVPYQuanPin
p5814
VVRStarjiaoyu
p5815
sVSignature
p5816
VVRStar\u662f\u56fd\u5185\u9996\u5bb6\u4e13\u6ce8\u5728VR\u3001AR\u4ee5\u53ca\u6e38\u620f\u9886\u57df\u7684\u4e13\u4e1a\u4eba\u624d\u57f9\u517b\u673a\u6784\uff0c\u7ed3\u5408\u56fd\u5185\u6700\u6709\u7ecf\u9a8c\u6700\u9ad8\u7aef\u7684\u5e08\u8d44\u3001\u884c\u4e1a\u5bfc\u5e08\u987e\u95ee\u56e2\u3001\u4ee5\u53ca\u5f3a\u5927\u7684\u6559\u5b66\u786c\u4ef6\u548c\u73af\u5883\u8bbe\u65bd\uff0c\u6253\u9020\u8986\u76d6VR\u3001AR\u3001\u6e38\u620f\u7b49\u5168\u4e92\u52a8\u9886\u57df\u7684\u4ea7\u5b66\u7814\u4e00\u4f53\u5316\u751f\u6001\u6559\u80b2\u5f62\u5f0f\u3002
p5817
sVRemarkPYInitial
p5818
g45
sVContactFlag
p5819
I3
sVUin
p5820
I0
sVNickName
p5821
VVRStar\u6559\u80b2
p5822
sVAppAccountFlag
p5823
I0
sVVerifyFlag
p5824
I24
sVRemarkPYQuanPin
p5825
g45
sVHeadImgUrl
p5826
V/cgi-bin/mmwebwx-bin/webwxgeticon?seq=648557580&username=@a82e1e870fd5f5fb0edadc7938240ed8&skey=@crypt_7a97a81e_5cd31d7995feba3757e6dc9bbe7af259
p5827
sVKeyWord
p5828
Vgh_
p5829
sVProvince
p5830
V\u5317\u4eac
p5831
sVPYInitial
p5832
VVRSTARJY
p5833
sVRemarkName
p5834
g45
sVIsOwner
p5835
I0
sVSex
p5836
I0
sVStarFriend
p5837
I0
sVHideInputBarFlag
p5838
I0
sVChatRoomId
p5839
I0
sVEncryChatRoomId
p5840
g45
sVAttrStatus
p5841
I0
sVStatues
p5842
I0
stp5843
Rp5844
I1
bag27
(g4260
g32
(dp5845
VUserName
p5846
V@65ad73f51962a78c69d566cf507fe6b6
p5847
sVCity
p5848
V\u6d77\u6dc0
p5849
sVSnsFlag
p5850
I0
sVDisplayName
p5851
g45
sVUniFriend
p5852
I0
sVMemberCount
p5853
I0
sVOwnerUin
p5854
I0
sVMemberList
p5855
g43
sVAlias
p5856
g45
sVPYQuanPin
p5857
Vlahualiushuicaimei
p5858
sVSignature
p5859
V[\u6284\u53f0\u8bcd]\u201c\u6211\u4eba\u751f\u53ef\u4ee5\u8bf4\u662f\u4e00\u5e06\u98ce\u987a\uff0c\u6ca1\u7ecf\u5386\u8fc7\u4ec0\u4e48\u632b\u6298\uff0c\u6211\u6d3b\u7684\u8fd9\u4e48\u4e27\uff0c\u57fa\u672c\u4e0a\u662f\u5168\u9760\u81ea\u5df1\u7684\u60f3\u8c61\u529b\u3002\u201d\u2014\u2014\u5fae\u535a\u674e\u8bde
p5860
sVRemarkPYInitial
p5861
g45
sVContactFlag
p5862
I3
sVUin
p5863
I0
sVNickName
p5864
V\u843d\u82b1\u6d41\u6c34\u624d\u7f8e
p5865
sVAppAccountFlag
p5866
I0
sVVerifyFlag
p5867
I8
sVRemarkPYQuanPin
p5868
g45
sVHeadImgUrl
p5869
V/cgi-bin/mmwebwx-bin/webwxgeticon?seq=648559933&username=@65ad73f51962a78c69d566cf507fe6b6&skey=@crypt_7a97a81e_5cd31d7995feba3757e6dc9bbe7af259
p5870
sVKeyWord
p5871
Vgh_
p5872
sVProvince
p5873
V\u5317\u4eac
p5874
sVPYInitial
p5875
VLHLSCM
p5876
sVRemarkName
p5877
g45
sVIsOwner
p5878
I0
sVSex
p5879
I0
sVStarFriend
p5880
I0
sVHideInputBarFlag
p5881
I0
sVChatRoomId
p5882
I0
sVEncryChatRoomId
p5883
g45
sVAttrStatus
p5884
I0
sVStatues
p5885
I0
stp5886
Rp5887
I1
bag27
(g4260
g32
(dp5888
VUserName
p5889
V@b6fe2755af2de944ca7d84f28c42d261
p5890
sVCity
p5891
V\u4e30\u53f0
p5892
sVSnsFlag
p5893
I0
sVDisplayName
p5894
g45
sVUniFriend
p5895
I0
sVMemberCount
p5896
I0
sVOwnerUin
p5897
I0
sVMemberList
p5898
g43
sVAlias
p5899
g45
sVPYQuanPin
p5900
VCPPkaifazhe
p5901
sVSignature
p5902
V\u4f2f\u4e50\u5728\u7ebf\u65d7\u4e0b\u8d26\u53f7\uff0c\u300cCPP\u5f00\u53d1\u8005\u300d\u4e13\u6ce8\u5206\u4eab C/C++ \u5f00\u53d1\u76f8\u5173\u7684\u6280\u672f\u6587\u7ae0\u548c\u5de5\u5177\u8d44\u6e90\u3002
p5903
sVRemarkPYInitial
p5904
g45
sVContactFlag
p5905
I3
sVUin
p5906
I0
sVNickName
p5907
VCPP\u5f00\u53d1\u8005
p5908
sVAppAccountFlag
p5909
I0
sVVerifyFlag
p5910
I8
sVRemarkPYQuanPin
p5911
g45
sVHeadImgUrl
p5912
V/cgi-bin/mmwebwx-bin/webwxgeticon?seq=648560949&username=@b6fe2755af2de944ca7d84f28c42d261&skey=@crypt_7a97a81e_5cd31d7995feba3757e6dc9bbe7af259
p5913
sVKeyWord
p5914
Vgh_
p5915
sVProvince
p5916
V\u5317\u4eac
p5917
sVPYInitial
p5918
VCPPKFZ
p5919
sVRemarkName
p5920
g45
sVIsOwner
p5921
I0
sVSex
p5922
I0
sVStarFriend
p5923
I0
sVHideInputBarFlag
p5924
I0
sVChatRoomId
p5925
I0
sVEncryChatRoomId
p5926
g45
sVAttrStatus
p5927
I0
sVStatues
p5928
I0
stp5929
Rp5930
I1
bag27
(g4260
g32
(dp5931
VUserName
p5932
V@035210fd1dab7057a6bb3b7b9ff20e45eb6f298f4ee98919f8b3a5118f2559aa
p5933
sVCity
p5934
V\u671d\u9633
p5935
sVSnsFlag
p5936
I0
sVDisplayName
p5937
g45
sVUniFriend
p5938
I0
sVMemberCount
p5939
I0
sVOwnerUin
p5940
I0
sVMemberList
p5941
g43
sVAlias
p5942
g45
sVPYQuanPin
p5943
Vmeituan
p5944
sVSignature
p5945
V\u7f8e\u56e2\u670d\u52a1\u53f7\uff0c\u5403\u559d\u73a9\u4e50\u5168\u90fd\u6709\u3002\u7cbe\u9009\u4f18\u8d28\u5546\u5bb6\u5c31\u7b49\u4f60\u6765\uff0c\u5927\u989d\u7ea2\u5305\u798f\u5229\u5c31\u7b49\u4f60\u62a2\u3002\u9910\u5385\u7f8e\u98df\u3001\u5916\u5356\u3001\u7535\u5f71\u8d2d\u7968\u3001\u9152\u5e97\u65c5\u6e38\u3001\u4f11\u95f2\u5a31\u4e50\uff0c\u8fd8\u6709\u4ec0\u4e48\u5417\uff1f\u5173\u6ce8\u6211\u4eec\u5c31\u77e5\u9053\u4e86\uff01
p5946
sVRemarkPYInitial
p5947
g45
sVContactFlag
p5948
I3
sVUin
p5949
I0
sVNickName
p5950
V\u7f8e\u56e2
p5951
sVAppAccountFlag
p5952
I0
sVVerifyFlag
p5953
I24
sVRemarkPYQuanPin
p5954
g45
sVHeadImgUrl
p5955
V/cgi-bin/mmwebwx-bin/webwxgeticon?seq=640380321&username=@035210fd1dab7057a6bb3b7b9ff20e45eb6f298f4ee98919f8b3a5118f2559aa&skey=@crypt_7a97a81e_5cd31d7995feba3757e6dc9bbe7af259
p5956
sVKeyWord
p5957
g45
sVProvince
p5958
V\u5317\u4eac
p5959
sVPYInitial
p5960
VMT
p5961
sVRemarkName
p5962
g45
sVIsOwner
p5963
I0
sVSex
p5964
I0
sVStarFriend
p5965
I0
sVHideInputBarFlag
p5966
I0
sVChatRoomId
p5967
I0
sVEncryChatRoomId
p5968
g45
sVAttrStatus
p5969
I0
sVStatues
p5970
I0
stp5971
Rp5972
I1
bag27
(g4260
g32
(dp5973
VUserName
p5974
V@b67ee5f996186a48daa5cfc988953888
p5975
sVCity
p5976
g45
sVSnsFlag
p5977
I0
sVDisplayName
p5978
g45
sVUniFriend
p5979
I0
sVMemberCount
p5980
I0
sVOwnerUin
p5981
I0
sVMemberList
p5982
g43
sVAlias
p5983
g45
sVPYQuanPin
p5984
Vjingdongbaitiao
p5985
sVSignature
p5986
V\u5148\u6d88\u8d39\uff0c\u540e\u4ed8\u6b3e\u3002\u4fe1\u7528\u597d\uff0c\u6253\u767d\u6761\u3002\u8d85\u4f4e\u5206\u671f\u8d39\u7387\uff0c\u66f4\u6709\u4e13\u4eab\u4f18\u60e0\u3002
p5987
sVRemarkPYInitial
p5988
g45
sVContactFlag
p5989
I3
sVUin
p5990
I0
sVNickName
p5991
V\u4eac\u4e1c\u767d\u6761
p5992
sVAppAccountFlag
p5993
I0
sVVerifyFlag
p5994
I24
sVRemarkPYQuanPin
p5995
g45
sVHeadImgUrl
p5996
V/cgi-bin/mmwebwx-bin/webwxgeticon?seq=657948148&username=@b67ee5f996186a48daa5cfc988953888&skey=@crypt_7a97a81e_5cd31d7995feba3757e6dc9bbe7af259
p5997
sVKeyWord
p5998
Vgh_
p5999
sVProvince
p6000
V\u5317\u4eac
p6001
sVPYInitial
p6002
VJDBT
p6003
sVRemarkName
p6004
g45
sVIsOwner
p6005
I0
sVSex
p6006
I0
sVStarFriend
p6007
I0
sVHideInputBarFlag
p6008
I0
sVChatRoomId
p6009
I0
sVEncryChatRoomId
p6010
g45
sVAttrStatus
p6011
I0
sVStatues
p6012
I0
stp6013
Rp6014
I1
bag27
(g4260
g32
(dp6015
VUserName
p6016
V@43412c9864e940bb9e06dd1acd849783
p6017
sVCity
p6018
V\u897f\u57ce
p6019
sVSnsFlag
p6020
I0
sVDisplayName
p6021
g45
sVUniFriend
p6022
I0
sVMemberCount
p6023
I0
sVOwnerUin
p6024
I0
sVMemberList
p6025
g43
sVAlias
p6026
g45
sVPYQuanPin
p6027
V2233kazhushou
p6028
sVSignature
p6029
V\u201c2233\u5361\u52a9\u624b\u201d\u4e3a\u5df2\u8ba2\u8d2d22\u5361\u300133\u5361\u6216\u5c0f\u7535\u89c6\u5361\u7684\u7528\u6237\u63d0\u4f9b\u4e13\u5c5e\u670d\u52a1\uff0c\u5305\u62ec\u4fe1\u606f\u67e5\u8be2\u3001\u5145\u503c\u7f34\u8d39\u3001\u6fc0\u6d3b\u5f15\u5bfc\u5e2e\u52a9\u3001\u4f7f\u7528\u653b\u7565\u3001\u6d3b\u52a8\u63a8\u9001\u3001\u5728\u7ebf\u5ba2\u670d\u7b49\uff01\u8fd8\u6709\u66f4\u591a\u4e13\u5c5e\u670d\u52a1\u7b49\u8fd9\u60a8\uff01
p6030
sVRemarkPYInitial
p6031
g45
sVContactFlag
p6032
I1
sVUin
p6033
I0
sVNickName
p6034
V2233\u5361\u52a9\u624b
p6035
sVAppAccountFlag
p6036
I0
sVVerifyFlag
p6037
I24
sVRemarkPYQuanPin
p6038
g45
sVHeadImgUrl
p6039
V/cgi-bin/mmwebwx-bin/webwxgeticon?seq=657951066&username=@43412c9864e940bb9e06dd1acd849783&skey=@crypt_7a97a81e_5cd31d7995feba3757e6dc9bbe7af259
p6040
sVKeyWord
p6041
Vgh_
p6042
sVProvince
p6043
V\u5317\u4eac
p6044
sVPYInitial
p6045
V2233KZS
p6046
sVRemarkName
p6047
g45
sVIsOwner
p6048
I0
sVSex
p6049
I0
sVStarFriend
p6050
I0
sVHideInputBarFlag
p6051
I0
sVChatRoomId
p6052
I0
sVEncryChatRoomId
p6053
g45
sVAttrStatus
p6054
I0
sVStatues
p6055
I0
stp6056
Rp6057
I1
bag27
(g4260
g32
(dp6058
VUserName
p6059
V@b2c60a68545ecf8105ecf09c4c264053
p6060
sVCity
p6061
V\u6df1\u5733
p6062
sVSnsFlag
p6063
I0
sVDisplayName
p6064
g45
sVUniFriend
p6065
I0
sVMemberCount
p6066
I0
sVOwnerUin
p6067
I0
sVMemberList
p6068
g43
sVAlias
p6069
g45
sVPYQuanPin
p6070
ViTools
p6071
sVSignature
p6072
ViTools\u662f\u4e00\u6b3e\u57fa\u4e8ePC\u7aef\u7684\u7b80\u5355\u6613\u7528\u7684\u82f9\u679c\u8bbe\u5907\u540c\u6b65\u7ba1\u7406\u8f6f\u4ef6\uff0c\u65e0\u8bba\u4f60\u7684\u82f9\u679c\u6709\u6ca1\u6709\u8d8a\u72f1\uff0c\u90fd\u53ef\u4ee5\u4f7f\u7528iTools\u975e\u5e38\u65b9\u4fbf\u7684\u5b8c\u6210\u5bf9\u82f9\u679c\u8bbe\u5907\u7684\u4fe1\u606f\u3001\u97f3\u4e50\u3001\u94c3\u58f0\u3001\u7535\u5b50\u4e66\u3001\u56fe\u7247\u3001\u684c\u9762\u3001\u8f6f\u4ef6\u5b89\u88c5\u3001\u4e92\u8054\u7f51\u8d44\u6e90\u4e0b\u8f7d\u3001\u8f6f\u4ef6\u7b49\u4fe1\u606f\u7ba1\u7406\u3001\u5907\u4efd\u3001\u5f52\u7c7b\u3001\u82f9\u679c\u8bbe\u5907\u7cfb\u7edf\u4fe1\u606f\u7684\u4fee\u6539\uff0c\u5145\u5206\u7684\u6ee1\u8db3\u4f60\u7684\u5404\u79cd\u9700\u6c42\u3002
p6073
sVRemarkPYInitial
p6074
g45
sVContactFlag
p6075
I1
sVUin
p6076
I0
sVNickName
p6077
ViTools
p6078
sVAppAccountFlag
p6079
I0
sVVerifyFlag
p6080
I24
sVRemarkPYQuanPin
p6081
g45
sVHeadImgUrl
p6082
V/cgi-bin/mmwebwx-bin/webwxgeticon?seq=657952331&username=@b2c60a68545ecf8105ecf09c4c264053&skey=@crypt_7a97a81e_5cd31d7995feba3757e6dc9bbe7af259
p6083
sVKeyWord
p6084
Vgh_
p6085
sVProvince
p6086
V\u5e7f\u4e1c
p6087
sVPYInitial
p6088
VITOOLS
p6089
sVRemarkName
p6090
g45
sVIsOwner
p6091
I0
sVSex
p6092
I0
sVStarFriend
p6093
I0
sVHideInputBarFlag
p6094
I0
sVChatRoomId
p6095
I0
sVEncryChatRoomId
p6096
g45
sVAttrStatus
p6097
I0
sVStatues
p6098
I0
stp6099
Rp6100
I1
bag27
(g4260
g32
(dp6101
VUserName
p6102
V@33e1d88d946ee2e3fca0a7f124c711f0
p6103
sVCity
p6104
V\u79e6\u7687\u5c9b
p6105
sVSnsFlag
p6106
I0
sVDisplayName
p6107
g45
sVUniFriend
p6108
I0
sVMemberCount
p6109
I0
sVOwnerUin
p6110
I0
sVMemberList
p6111
g43
sVAlias
p6112
g45
sVPYQuanPin
p6113
Vyanshandaxueruanjiangongchengji
p6114
sVSignature
p6115
V\u8be5\u53f7\u4f5c\u4e3a\u71d5\u5c71\u5927\u5b66\u8f6f\u4ef6\u5de5\u7a0b\u7cfb\u7684\u5b98\u65b9\u516c\u4f17\u53f7
p6116
sVRemarkPYInitial
p6117
g45
sVContactFlag
p6118
I1
sVUin
p6119
I0
sVNickName
p6120
V\u71d5\u5c71\u5927\u5b66\u8f6f\u4ef6\u5de5\u7a0b\u7cfb
p6121
sVAppAccountFlag
p6122
I0
sVVerifyFlag
p6123
I8
sVRemarkPYQuanPin
p6124
g45
sVHeadImgUrl
p6125
V/cgi-bin/mmwebwx-bin/webwxgeticon?seq=657952964&username=@33e1d88d946ee2e3fca0a7f124c711f0&skey=@crypt_7a97a81e_5cd31d7995feba3757e6dc9bbe7af259
p6126
sVKeyWord
p6127
Vgh_
p6128
sVProvince
p6129
V\u6cb3\u5317
p6130
sVPYInitial
p6131
VYSDXRJGCJ
p6132
sVRemarkName
p6133
g45
sVIsOwner
p6134
I0
sVSex
p6135
I0
sVStarFriend
p6136
I0
sVHideInputBarFlag
p6137
I0
sVChatRoomId
p6138
I0
sVEncryChatRoomId
p6139
g45
sVAttrStatus
p6140
I0
sVStatues
p6141
I0
stp6142
Rp6143
I1
bag27
(g4260
g32
(dp6144
VUserName
p6145
V@2ae661265c46a48063b5432b02a76c64
p6146
sVCity
p6147
V\u79e6\u7687\u5c9b
p6148
sVSnsFlag
p6149
I0
sVDisplayName
p6150
g45
sVUniFriend
p6151
I0
sVMemberCount
p6152
I0
sVOwnerUin
p6153
I0
sVMemberList
p6154
g43
sVAlias
p6155
g45
sVPYQuanPin
p6156
VYSUBenTeng
p6157
sVSignature
p6158
V\u8fd9\u91cc\u662f\u5174\u8da3\u7231\u597d\u97f3\u4e50\u821e\u8e48\u827a\u672f\u7684\u4ea4\u6d41\uff0c\u662f\u4f60\u5c55\u73b0\u81ea\u6211\u7684\u5e73\u53f0
p6159
sVRemarkPYInitial
p6160
g45
sVContactFlag
p6161
I1
sVUin
p6162
I0
sVNickName
p6163
VYSUBenTeng
p6164
sVAppAccountFlag
p6165
I0
sVVerifyFlag
p6166
I8
sVRemarkPYQuanPin
p6167
g45
sVHeadImgUrl
p6168
V/cgi-bin/mmwebwx-bin/webwxgeticon?seq=657965927&username=@2ae661265c46a48063b5432b02a76c64&skey=@crypt_7a97a81e_5cd31d7995feba3757e6dc9bbe7af259
p6169
sVKeyWord
p6170
Vgh_
p6171
sVProvince
p6172
V\u6cb3\u5317
p6173
sVPYInitial
p6174
VYSUBENTENG
p6175
sVRemarkName
p6176
g45
sVIsOwner
p6177
I0
sVSex
p6178
I0
sVStarFriend
p6179
I0
sVHideInputBarFlag
p6180
I0
sVChatRoomId
p6181
I0
sVEncryChatRoomId
p6182
g45
sVAttrStatus
p6183
I0
sVStatues
p6184
I0
stp6185
Rp6186
I1
bag27
(g4260
g32
(dp6187
VUserName
p6188
V@59de651326aa8dc14ebadd242df38941
p6189
sVCity
p6190
V\u6df1\u5733
p6191
sVSnsFlag
p6192
I0
sVDisplayName
p6193
g45
sVUniFriend
p6194
I0
sVMemberCount
p6195
I0
sVOwnerUin
p6196
I0
sVMemberList
p6197
g43
sVAlias
p6198
g45
sVPYQuanPin
p6199
Vkaiyuanzhongguo
p6200
sVSignature
p6201
VOSChina \u5f00\u6e90\u4e2d\u56fd \u5b98\u65b9\u5fae\u4fe1\u8d26\u53f7
p6202
sVRemarkPYInitial
p6203
g45
sVContactFlag
p6204
I1
sVUin
p6205
I0
sVNickName
p6206
V\u5f00\u6e90\u4e2d\u56fd
p6207
sVAppAccountFlag
p6208
I0
sVVerifyFlag
p6209
I8
sVRemarkPYQuanPin
p6210
g45
sVHeadImgUrl
p6211
V/cgi-bin/mmwebwx-bin/webwxgeticon?seq=657979482&username=@59de651326aa8dc14ebadd242df38941&skey=@crypt_7a97a81e_5cd31d7995feba3757e6dc9bbe7af259
p6212
sVKeyWord
p6213
Vgh_
p6214
sVProvince
p6215
V\u5e7f\u4e1c
p6216
sVPYInitial
p6217
VKYZG
p6218
sVRemarkName
p6219
g45
sVIsOwner
p6220
I0
sVSex
p6221
I0
sVStarFriend
p6222
I0
sVHideInputBarFlag
p6223
I0
sVChatRoomId
p6224
I0
sVEncryChatRoomId
p6225
g45
sVAttrStatus
p6226
I0
sVStatues
p6227
I0
stp6228
Rp6229
I1
bag27
(g4260
g32
(dp6230
VUserName
p6231
V@e6ff5be01844d3e2963d03aba7858787
p6232
sVCity
p6233
V\u6d77\u6dc0
p6234
sVSnsFlag
p6235
I0
sVDisplayName
p6236
g45
sVUniFriend
p6237
I0
sVMemberCount
p6238
I0
sVOwnerUin
p6239
I0
sVMemberList
p6240
g43
sVAlias
p6241
g45
sVPYQuanPin
p6242
Vjicunbaofuwuhao
p6243
sVSignature
p6244
V\u5bc4\u5b58\u5b9d\u5b98\u65b9\u670d\u52a1\u53f7\uff0c\u81f4\u529b\u4e8e\u63d0\u4f9b\u6700\u5b89\u5fc3\u7684\u5bc4\u5b58\u670d\u52a1\uff0c\u8ba9\u7528\u6237\u968f\u65f6\u53ef\u4ee5\u66f4\u8f7b\u677e\u3002
p6245
sVRemarkPYInitial
p6246
g45
sVContactFlag
p6247
I1
sVUin
p6248
I0
sVNickName
p6249
V\u5bc4\u5b58\u5b9d\u670d\u52a1\u53f7
p6250
sVAppAccountFlag
p6251
I0
sVVerifyFlag
p6252
I24
sVRemarkPYQuanPin
p6253
g45
sVHeadImgUrl
p6254
V/cgi-bin/mmwebwx-bin/webwxgeticon?seq=657985096&username=@e6ff5be01844d3e2963d03aba7858787&skey=@crypt_7a97a81e_5cd31d7995feba3757e6dc9bbe7af259
p6255
sVKeyWord
p6256
Vgh_
p6257
sVProvince
p6258
V\u5317\u4eac
p6259
sVPYInitial
p6260
VJCBFWH
p6261
sVRemarkName
p6262
g45
sVIsOwner
p6263
I0
sVSex
p6264
I0
sVStarFriend
p6265
I0
sVHideInputBarFlag
p6266
I0
sVChatRoomId
p6267
I0
sVEncryChatRoomId
p6268
g45
sVAttrStatus
p6269
I0
sVStatues
p6270
I0
stp6271
Rp6272
I1
batp6273
Rp6274
I1
bssS'loginInfo'
p6275
(dp6276
S'SyncKey'
p6277
(dp6278
VCount
p6279
I8
sVList
p6280
(lp6281
(dp6282
VVal
p6283
I657996412
sVKey
p6284
I1
sa(dp6285
VVal
p6286
I657996713
sVKey
p6287
I2
sa(dp6288
VVal
p6289
I657996682
sVKey
p6290
I3
sa(dp6291
VVal
p6292
I657995871
sVKey
p6293
I11
sa(dp6294
VVal
p6295
I657940179
sVKey
p6296
I13
sa(dp6297
VVal
p6298
I1501588458
sVKey
p6299
I201
sa(dp6300
VVal
p6301
I1501582862
sVKey
p6302
I1000
sa(dp6303
VVal
p6304
I1501582893
sVKey
p6305
I1001
sassS'syncUrl'
p6306
S'https://webpush.wx.qq.com/cgi-bin/mmwebwx-bin'
p6307
sS'skey'
p6308
V@crypt_7a97a81e_5cd31d7995feba3757e6dc9bbe7af259
p6309
sS'wxuin'
p6310
V2751702521
p6311
sS'synckey'
p6312
S'1_657996412|2_657996713|3_657996682|11_657995871|13_657940179|201_1501588458|1000_1501582862|1001_1501582893'
p6313
sS'url'
p6314
Vhttps://wx.qq.com/cgi-bin/mmwebwx-bin
p6315
sS'pass_ticket'
p6316
Vk8eCaOalyUOH8ooIv78M9GPb2Q18%2B8sg3ovYaS%2BiQmgUAThH0ZqjKLSaTbx9n1Dp
p6317
sS'wxsid'
p6318
Vzib/METlEA0rqF91
p6319
sS'InviteStartCount'
p6320
I40
sS'deviceid'
p6321
S'e281780832162437'
p6322
sS'fileUrl'
p6323
S'https://file.wx.qq.com/cgi-bin/mmwebwx-bin'
p6324
sS'BaseRequest'
p6325
(dp6326
g47
g6311
sS'Skey'
p6327
g6309
sS'DeviceID'
p6328
g6317
sS'Sid'
p6329
g6319
ssS'User'
p6330
g27
(g31
g32
(dp6331
g34
g24
sg35
g36
sg37
g36
sg38
I0
sg40
g43
sg44
g45
sg46
g45
sg71
I1
sg48
I0
sg49
I0
sg50
g36
sg51
g36
sg52
g45
sg53
g45
sg54
I0
sg55
I0
sg56
I1
sg57
g36
sg58
I0
sg61
I0
sg59
I17
sg60
I0
sg39
I0
sg62
g36
sg63
g64
sg65
I0
sg66
g67
sg68
g45
sg69
g70
sg47
L2751702521L
sg72
I0
sg73
I0
stp6332
Rp6333
I1
bss.