(dp0
S'cookies'
p1
(dp2
S'wxloadtime'
p3
S'1501593045_expired'
p4
sS'webwx_data_ticket'
p5
S'gScRNIYsGDoj8+GqKsVHtl2U'
p6
sS'wxuin'
p7
S'612373864'
p8
sS'login_frequency'
p9
S'2'
p10
sS'MM_WX_NOTIFY_STATE'
p11
S'1'
p12
sS'MM_WX_SOUND_STATE'
p13
g12
sS'webwx_auth_ticket'
p14
S'CIsBEKK46YcMGoAB5e/eiOD2wxxGBcVVl2XKqLnOa+S4OqR3IN07eLzTETr9R8F17BvxPksGo+P5GSolWnXeQ0a/IKDHdtSQAtqeLbJh/dP2SPycZrpH7O0vhSn4qjpc6lVUwSr19R3Fl/0WPOV+a9epY9IEi//pfW95BKYEXzyBtY3//+WRAf3yRVQ='
p15
sS'last_wxuin'
p16
S'612373864'
p17
sS'webwxuvid'
p18
S'a1f0d041ce34770c02bf8eea356e07e28f82b54714e63d0df9da22b1c7d52924ad529dd272827e1a410e05222799e48d'
p19
sS'wxpluginkey'
p20
S'1501592663'
p21
sS'wxsid'
p22
S'/Ml3l6vjnf+/Q7vG'
p23
sS'mm_lang'
p24
S'zh_CN'
p25
ssS'version'
p26
S'1.3.9'
p27
sS'storage'
p28
(dp29
S'userName'
p30
V@b53d0de1c69ef5a148e739f3a561212693b6c511956d3a20fb230ecc61777641
p31
sS'lastInputUserName'
p32
NsS'memberList'
p33
ccopy_reg
_reconstructor
p34
(citchat.storage.templates
ContactList
p35
c__builtin__
list
p36
(lp37
g34
(citchat.storage.templates
User
p38
c__builtin__
dict
p39
(dp40
S'UserName'
p41
g31
sS'City'
p42
S''
p43
sS'DisplayName'
p44
g43
sS'UniFriend'
p45
I0
sS'OwnerUin'
p46
I0
sS'MemberList'
p47
g34
(g35
g36
(lp48
tp49
Rp50
I1
bsS'PYQuanPin'
p51
V
p52
sS'RemarkPYInitial'
p53
g52
sS'Uin'
p54
I612373864
sS'AppAccountFlag'
p55
I0
sS'VerifyFlag'
p56
I0
sS'Province'
p57
g43
sS'KeyWord'
p58
g43
sS'RemarkName'
p59
g52
sS'PYInitial'
p60
g52
sS'ChatRoomId'
p61
I0
sS'HideInputBarFlag'
p62
I0
sVHeadImgFlag
p63
I1
sS'EncryChatRoomId'
p64
g43
sS'AttrStatus'
p65
I0
sS'SnsFlag'
p66
I16
sS'MemberCount'
p67
I0
sVWebWxPluginSwitch
p68
I0
sS'Alias'
p69
g43
sS'Signature'
p70
g52
sS'ContactFlag'
p71
I0
sS'NickName'
p72
V\u6d4b\u8bd5
p73
sS'RemarkPYQuanPin'
p74
g52
sS'HeadImgUrl'
p75
V/cgi-bin/mmwebwx-bin/webwxgeticon?seq=2071657261&username=@b53d0de1c69ef5a148e739f3a561212693b6c511956d3a20fb230ecc61777641&skey=@crypt_3c18dd5c_549a4ee34e63b940a7a89ae1a16e0827
p76
sS'Sex'
p77
I0
sS'StarFriend'
p78
I0
sS'Statues'
p79
I0
stp80
Rp81
I1
bag34
(g38
g39
(dp82
VUserName
p83
V@be9beccc7269aa786c3e55e414c68ed6a499b248a10fd6986bd8e85f942554b5
p84
sVCity
p85
V\u4fdd\u5b9a
p86
sVSnsFlag
p87
I17
sVDisplayName
p88
g52
sVUniFriend
p89
I0
sVMemberCount
p90
I0
sVOwnerUin
p91
I0
sVMemberList
p92
g50
sVAlias
p93
g52
sVPYQuanPin
p94
Vwei
p95
sVSignature
p96
V\u6211\u5b58\u5728\u5728\u4f60\u7684\u5b58\u5728
p97
sVRemarkPYInitial
p98
g52
sVContactFlag
p99
I3
sVUin
p100
I0
sVNickName
p101
V\u9b4f
p102
sVAppAccountFlag
p103
I0
sVVerifyFlag
p104
I0
sVRemarkPYQuanPin
p105
g52
sVHeadImgUrl
p106
V/cgi-bin/mmwebwx-bin/webwxgeticon?seq=669000045&username=@be9beccc7269aa786c3e55e414c68ed6a499b248a10fd6986bd8e85f942554b5&skey=@crypt_3c18dd5c_549a4ee34e63b940a7a89ae1a16e0827
p107
sVKeyWord
p108
g52
sVProvince
p109
V\u6cb3\u5317
p110
sVPYInitial
p111
VW
p112
sVRemarkName
p113
g52
sVStarFriend
p114
I0
sVSex
p115
I1
sVIsOwner
p116
I0
sVHideInputBarFlag
p117
I0
sVChatRoomId
p118
I0
sVEncryChatRoomId
p119
g52
sVAttrStatus
p120
I110693
sVStatues
p121
I0
stp122
Rp123
I1
batp124
Rp125
I1
bsS'chatroomList'
p126
g34
(g35
g36
(lp127
g34
(citchat.storage.templates
Chatroom
p128
g39
(dp129
VUserName
p130
V@@07a19b7b7206693aeda3d6a6848dccaa7667ff338db69748a675682c7718dd10
p131
sVCity
p132
g52
sVSnsFlag
p133
I0
sVMemberCount
p134
I10
sS'Self'
p135
g34
(citchat.storage.templates
ChatroomMember
p136
g39
(dp137
VUserName
p138
V@b53d0de1c69ef5a148e739f3a561212693b6c511956d3a20fb230ecc61777641
p139
sVRemarkPYQuanPin
p140
g52
sVDisplayName
p141
g52
sVKeyWord
p142
g52
sVPYInitial
p143
g52
sVUin
p144
I0
sS'MemberList'
p145
g50
sVRemarkPYInitial
p146
g52
sVPYQuanPin
p147
g52
sVMemberStatus
p148
I0
sVNickName
p149
V\u6d4b\u8bd5
p150
sVAttrStatus
p151
I33
stp152
Rp153
I1
bsS'OwnerUin'
p154
I0
sVMemberList
p155
g34
(g35
g36
(lp156
g34
(g136
g39
(dp157
VUserName
p158
V@01b7a82d4d925a9f8b4b941ad5f7caa1c17d8ae2e31f11e547aea4242c3fe3cb
p159
sVRemarkPYQuanPin
p160
g52
sVDisplayName
p161
g52
sVKeyWord
p162
g52
sVPYInitial
p163
g52
sVUin
p164
I0
sg145
g50
sVMemberStatus
p165
I0
sVPYQuanPin
p166
g52
sVRemarkPYInitial
p167
g52
sVNickName
p168
V\u8d85
p169
sVAttrStatus
p170
I234173
stp171
Rp172
I1
bag34
(g136
g39
(dp173
VUserName
p174
V@be9beccc7269aa786c3e55e414c68ed6a499b248a10fd6986bd8e85f942554b5
p175
sVRemarkPYQuanPin
p176
g52
sVDisplayName
p177
V\u8f93\u5165\u4e0d\u80fd\u4e3a\u7a7a
p178
sVKeyWord
p179
g52
sVPYInitial
p180
g52
sVUin
p181
I0
sg145
g50
sVMemberStatus
p182
I0
sVPYQuanPin
p183
g52
sVRemarkPYInitial
p184
g52
sVNickName
p185
V\u9b4f
p186
sVAttrStatus
p187
I110693
stp188
Rp189
I1
bag34
(g136
g39
(dp190
VUserName
p191
V@841d57d43aa442c5a92da91cea8b36cdf20b70f6bec78a5e8f5d49ffc2b1af1d
p192
sVRemarkPYQuanPin
p193
g52
sVDisplayName
p194
g52
sVKeyWord
p195
g52
sVPYInitial
p196
g52
sVUin
p197
I0
sg145
g50
sVMemberStatus
p198
I0
sVPYQuanPin
p199
g52
sVRemarkPYInitial
p200
g52
sVNickName
p201
V\u82a5\u5b50\u5fc3
p202
sVAttrStatus
p203
I135205
stp204
Rp205
I1
bag34
(g136
g39
(dp206
VUserName
p207
V@7de32cc2724cff500ab7aef3cdc700c6f51d183acb3e28ca765cc9fdaeaf011a
p208
sVRemarkPYQuanPin
p209
g52
sVDisplayName
p210
g52
sVKeyWord
p211
g52
sVPYInitial
p212
g52
sVUin
p213
I0
sg145
g50
sVMemberStatus
p214
I0
sVPYQuanPin
p215
g52
sVRemarkPYInitial
p216
g52
sVNickName
p217
Vnull
p218
sVAttrStatus
p219
I4133
stp220
Rp221
I1
bag34
(g136
g39
(dp222
VUserName
p223
V@c10a0b4b959772cef77150f8b9f0df2aef40ba6cd413c74cbcde2384916a1a7d
p224
sVRemarkPYQuanPin
p225
g52
sVDisplayName
p226
g52
sVKeyWord
p227
g52
sVPYInitial
p228
g52
sVUin
p229
I0
sg145
g50
sVMemberStatus
p230
I0
sVPYQuanPin
p231
g52
sVRemarkPYInitial
p232
g52
sVNickName
p233
V\u5434\u6d69
p234
sVAttrStatus
p235
I14437
stp236
Rp237
I1
bag34
(g136
g39
(dp238
VUserName
p239
V@be74fe320153af50cc7d0104780bae48635442a6d2167c9c3fa31821f6bc2643
p240
sVRemarkPYQuanPin
p241
g52
sVDisplayName
p242
g52
sVKeyWord
p243
g52
sVPYInitial
p244
g52
sVUin
p245
I0
sg145
g50
sVMemberStatus
p246
I0
sVPYQuanPin
p247
g52
sVRemarkPYInitial
p248
g52
sVNickName
p249
V\u91ca\u7136
p250
sVAttrStatus
p251
I135805
stp252
Rp253
I1
bag34
(g136
g39
(dp254
VUserName
p255
V@2df1856896bba7c714f8d9454fadd4f87430dba095e8572ded54df14afb5c3d4
p256
sVRemarkPYQuanPin
p257
g52
sVDisplayName
p258
g52
sVKeyWord
p259
g52
sVPYInitial
p260
g52
sVUin
p261
I0
sg145
g50
sVMemberStatus
p262
I0
sVPYQuanPin
p263
g52
sVRemarkPYInitial
p264
g52
sVNickName
p265
V\u5434\u90aa
p266
sVAttrStatus
p267
I98749
stp268
Rp269
I1
bag34
(g136
g39
(dp270
VUserName
p271
V@eea9285e1290d9bfe71b40bf41eb01bbe1ed7645e28870b6d59798e9a2c54358
p272
sVRemarkPYQuanPin
p273
g52
sVDisplayName
p274
g52
sVKeyWord
p275
g52
sVPYInitial
p276
g52
sVUin
p277
I0
sg145
g50
sVMemberStatus
p278
I0
sVPYQuanPin
p279
g52
sVRemarkPYInitial
p280
g52
sVNickName
p281
V\u4eba\u4e11\u5c31\u8981\u591a\u8bfb\u4e66\U0001f612
p282
sVAttrStatus
p283
I102589
stp284
Rp285
I1
bag34
(g136
g39
(dp286
VUserName
p287
V@391d84ff2a1f8cf2c33b2e70c16a36a4999becd77c1ec594d05c8d2d6cd28a6e
p288
sVRemarkPYQuanPin
p289
g52
sVDisplayName
p290
g52
sVKeyWord
p291
g52
sVPYInitial
p292
g52
sVUin
p293
I0
sg145
g50
sVMemberStatus
p294
I0
sVPYQuanPin
p295
g52
sVRemarkPYInitial
p296
g52
sVNickName
p297
V\u55b5\u4e86\u4e2a\u54aa
p298
sVAttrStatus
p299
I110695
stp300
Rp301
I1
bag34
(g136
g39
(dp302
g138
g139
sg140
g52
sg141
g52
sg142
g52
sg143
g52
sg144
I0
sg145
g50
sg148
I0
sg147
g52
sg146
g52
sg149
g150
sg151
I33
stp303
Rp304
I1
batp305
Rp306
I1
bsVAlias
p307
g52
sS'IsAdmin'
p308
NsVSignature
p309
g52
sVContactFlag
p310
I2
sVNickName
p311
V\u590f\u81f3\u672a\u81f3
p312
sVChatRoomOwner
p313
V@01b7a82d4d925a9f8b4b941ad5f7caa1c17d8ae2e31f11e547aea4242c3fe3cb
p314
sVVerifyFlag
p315
I0
sVProvince
p316
g52
sVStatues
p317
I1
sVKeyWord
p318
g52
sVRemarkName
p319
g52
sVHeadImgUrl
p320
V/cgi-bin/mmwebwx-bin/webwxgetheadimg?seq=0&username=@@07a19b7b7206693aeda3d6a6848dccaa7667ff338db69748a675682c7718dd10&skey=@crypt_3c18dd5c_549a4ee34e63b940a7a89ae1a16e0827
p321
sVSex
p322
I0
sVContactType
p323
I0
sVHideInputBarFlag
p324
I0
sVAttrStatus
p325
I0
sVHeadImgUpdateFlag
p326
I1
stp327
Rp328
I1
batp329
Rp330
I1
bsS'nickName'
p331
g73
sS'mpList'
p332
g34
(g35
g36
(lp333
g34
(citchat.storage.templates
MassivePlatform
p334
g39
(dp335
VUserName
p336
V@94434e1aa3749c1859b3b02997b4f8cf
p337
sVCity
p338
V\u6c88\u9633
p339
sVSnsFlag
p340
I0
sVDisplayName
p341
g52
sVUniFriend
p342
I0
sVMemberCount
p343
I0
sVOwnerUin
p344
I0
sVMemberList
p345
g50
sVAlias
p346
g52
sVPYQuanPin
p347
g52
sVSignature
p348
V\u5fa1\u9f99\u5728\u5929\u73a9\u5bb6\u6c9f\u901a
p349
sVRemarkPYInitial
p350
g52
sVContactFlag
p351
I3
sVUin
p352
I0
sVNickName
p353
g52
sVAppAccountFlag
p354
I0
sVVerifyFlag
p355
I8
sVRemarkPYQuanPin
p356
g52
sVHeadImgUrl
p357
V/cgi-bin/mmwebwx-bin/webwxgeticon?seq=620050042&username=@94434e1aa3749c1859b3b02997b4f8cf&skey=@crypt_3c18dd5c_549a4ee34e63b940a7a89ae1a16e0827
p358
sVKeyWord
p359
Vgh_
p360
sVProvince
p361
V\u8fbd\u5b81
p362
sVPYInitial
p363
g52
sVRemarkName
p364
g52
sVStarFriend
p365
I0
sVSex
p366
I0
sVIsOwner
p367
I0
sVHideInputBarFlag
p368
I0
sVChatRoomId
p369
I0
sVEncryChatRoomId
p370
g52
sVAttrStatus
p371
I0
sVStatues
p372
I0
stp373
Rp374
I1
bag34
(g334
g39
(dp375
VUserName
p376
V@47b0a5b93797099cdef1e61297e00351
p377
sVCity
p378
V\u6210\u90fd
p379
sVSnsFlag
p380
I0
sVDisplayName
p381
g52
sVUniFriend
p382
I0
sVMemberCount
p383
I0
sVOwnerUin
p384
I0
sVMemberList
p385
g50
sVAlias
p386
g52
sVPYQuanPin
p387
g52
sVSignature
p388
V\u817e\u8baf\u56fd\u6218\u6e38\u620f\u3001\u73a9\u5bb6\u4ea4\u6d41\u3002
p389
sVRemarkPYInitial
p390
g52
sVContactFlag
p391
I3
sVUin
p392
I0
sVNickName
p393
g52
sVAppAccountFlag
p394
I0
sVVerifyFlag
p395
I8
sVRemarkPYQuanPin
p396
g52
sVHeadImgUrl
p397
V/cgi-bin/mmwebwx-bin/webwxgeticon?seq=620050045&username=@47b0a5b93797099cdef1e61297e00351&skey=@crypt_3c18dd5c_549a4ee34e63b940a7a89ae1a16e0827
p398
sVKeyWord
p399
Vgh_
p400
sVProvince
p401
V\u56db\u5ddd
p402
sVPYInitial
p403
g52
sVRemarkName
p404
g52
sVStarFriend
p405
I0
sVSex
p406
I0
sVIsOwner
p407
I0
sVHideInputBarFlag
p408
I0
sVChatRoomId
p409
I0
sVEncryChatRoomId
p410
g52
sVAttrStatus
p411
I0
sVStatues
p412
I0
stp413
Rp414
I1
bag34
(g334
g39
(dp415
VUserName
p416
V@e6f155590955e93d3023fed2b07f0ac8
p417
sVCity
p418
V\u671d\u9633
p419
sVSnsFlag
p420
I0
sVDisplayName
p421
g52
sVUniFriend
p422
I0
sVMemberCount
p423
I0
sVOwnerUin
p424
I0
sVMemberList
p425
g50
sVAlias
p426
g52
sVPYQuanPin
p427
Vxiaomishouji
p428
sVSignature
p429
V\u5173\u6ce8\u5c0f\u7c73\u624b\u673a\u516c\u4f17\u53f7\uff0c\u4e70\u624b\u673a\u3001\u7533\u8bf7\u552e\u540e\u3001\u5ba2\u670d\u54a8\u8be2\u8fd9\u91cc\u5168\u90fd\u6709\uff01
p430
sVRemarkPYInitial
p431
g52
sVContactFlag
p432
I3
sVUin
p433
I0
sVNickName
p434
V\u5c0f\u7c73\u624b\u673a
p435
sVAppAccountFlag
p436
I0
sVVerifyFlag
p437
I24
sVRemarkPYQuanPin
p438
g52
sVHeadImgUrl
p439
V/cgi-bin/mmwebwx-bin/webwxgeticon?seq=620050030&username=@e6f155590955e93d3023fed2b07f0ac8&skey=@crypt_3c18dd5c_549a4ee34e63b940a7a89ae1a16e0827
p440
sVKeyWord
p441
Vgh_
p442
sVProvince
p443
V\u5317\u4eac
p444
sVPYInitial
p445
VXMSJ
p446
sVRemarkName
p447
g52
sVStarFriend
p448
I0
sVSex
p449
I0
sVIsOwner
p450
I0
sVHideInputBarFlag
p451
I0
sVChatRoomId
p452
I0
sVEncryChatRoomId
p453
g52
sVAttrStatus
p454
I0
sVStatues
p455
I0
stp456
Rp457
I1
bag34
(g334
g39
(dp458
VUserName
p459
V@b7a356eba8481ccf6bfc32be91ce6d58
p460
sVCity
p461
V\u6df1\u5733
p462
sVSnsFlag
p463
I0
sVDisplayName
p464
g52
sVUniFriend
p465
I0
sVMemberCount
p466
I0
sVOwnerUin
p467
I0
sVMemberList
p468
g50
sVAlias
p469
g52
sVPYQuanPin
p470
Vyulongzaitian
p471
sVSignature
p472
V 
p473
sVRemarkPYInitial
p474
g52
sVContactFlag
p475
I3
sVUin
p476
I0
sVNickName
p477
V\u5fa1\u9f99\u5728\u5929
p478
sVAppAccountFlag
p479
I0
sVVerifyFlag
p480
I24
sVRemarkPYQuanPin
p481
g52
sVHeadImgUrl
p482
V/cgi-bin/mmwebwx-bin/webwxgeticon?seq=620050039&username=@b7a356eba8481ccf6bfc32be91ce6d58&skey=@crypt_3c18dd5c_549a4ee34e63b940a7a89ae1a16e0827
p483
sVKeyWord
p484
Vylz
p485
sVProvince
p486
V\u5e7f\u4e1c
p487
sVPYInitial
p488
VYLZT
p489
sVRemarkName
p490
g52
sVStarFriend
p491
I0
sVSex
p492
I0
sVIsOwner
p493
I0
sVHideInputBarFlag
p494
I0
sVChatRoomId
p495
I0
sVEncryChatRoomId
p496
g52
sVAttrStatus
p497
I0
sVStatues
p498
I0
stp499
Rp500
I1
batp501
Rp502
I1
bssS'loginInfo'
p503
(dp504
S'SyncKey'
p505
(dp506
VCount
p507
I9
sVList
p508
(lp509
(dp510
VVal
p511
I669000042
sVKey
p512
I1
sa(dp513
VVal
p514
I669000089
sVKey
p515
I2
sa(dp516
VVal
p517
I669000057
sVKey
p518
I3
sa(dp519
VVal
p520
I669000083
sVKey
p521
I11
sa(dp522
VVal
p523
I669000001
sVKey
p524
I13
sa(dp525
VVal
p526
I1501597237
sVKey
p527
I201
sa(dp528
VVal
p529
I1501596991
sVKey
p530
I203
sa(dp531
VVal
p532
I1501592663
sVKey
p533
I1000
sa(dp534
VVal
p535
I1501582893
sVKey
p536
I1001
sassS'syncUrl'
p537
S'https://webpush.wx.qq.com/cgi-bin/mmwebwx-bin'
p538
sS'skey'
p539
V@crypt_3c18dd5c_549a4ee34e63b940a7a89ae1a16e0827
p540
sS'wxuin'
p541
V612373864
p542
sS'synckey'
p543
S'1_669000042|2_669000089|3_669000057|11_669000083|13_669000001|201_1501597237|203_1501596991|1000_1501592663|1001_1501582893'
p544
sS'url'
p545
Vhttps://wx.qq.com/cgi-bin/mmwebwx-bin
p546
sS'pass_ticket'
p547
VT4chNhF7OE9W%2BTruavoso1kI3oeAtGXQZg%2BXBvw%2FckDKN8Fi9sj4y1zKWD04HtLV
p548
sS'wxsid'
p549
V/Ml3l6vjnf+/Q7vG
p550
sS'BaseRequest'
p551
(dp552
g54
g542
sS'Skey'
p553
g540
sS'DeviceID'
p554
g548
sS'Sid'
p555
g550
ssS'deviceid'
p556
S'e068170915010221'
p557
sS'fileUrl'
p558
S'https://file.wx.qq.com/cgi-bin/mmwebwx-bin'
p559
sS'InviteStartCount'
p560
I40
sS'User'
p561
g34
(g38
g39
(dp562
g41
g31
sg42
g43
sg44
g43
sg45
I0
sg47
g50
sg51
g52
sg53
g52
sg77
I0
sg55
I0
sg56
I0
sg57
g43
sg58
g43
sg59
g52
sg60
g52
sg61
I0
sg62
I0
sg63
I1
sg64
g43
sg65
I0
sg68
I0
sg66
I16
sg67
I0
sg46
I0
sg69
g43
sg70
g52
sg71
I0
sg72
g73
sg74
g52
sg75
g76
sg54
I612373864
sg78
I0
sg79
I0
stp563
Rp564
I1
bss.